(dp0
S'class_sl'
p1
(dp2
S'AC'
p3
(I0
I4
tp4
sS'AM'
p5
(I4
I8
tp6
ssS'class_hierarchy'
p7
(dp8
g3
(lp9
S'AC_subcl'
p10
asg5
(lp11
S'AM_subcl'
p12
assS'feats'
p13
(dp14
S'Bacteria.Bacteroidetes.Sphingobacteria.Sphingobacteriales.Cytophagaceae.Pontibacter.akesuensis'
p15
(lp16
F0.0
aF30303.030303030304
aF0.0
aF0.0
aF0.0
aF0.0
aF0.0
aF0.0
asS'Bacteria.Actinobacteria.Actinobacteria.Coriobacteriales.Coriobacteriaceae'
p17
(lp18
F38461.53846153846
aF0.0
aF0.0
aF51282.05128205128
aF0.0
aF0.0
aF0.0
aF0.0
asS'Bacteria.Firmicutes.Clostridia.Clostridiales.Eubacteriaceae'
p19
(lp20
F0.0
aF0.0
aF0.0
aF0.0
aF0.0
aF0.0
aF22727.272727272728
aF0.0
asS'Unknown'
p21
(lp22
F923076.923076923
aF909090.9090909092
aF903225.806451613
aF794871.7948717949
aF906250.0
aF680000.0
aF772727.2727272727
aF937500.0
asS'Bacteria.Actinobacteria.Actinobacteria.Acidimicrobiales.Unassigned.Microthrix'
p23
(lp24
F0.0
aF0.0
aF0.0
aF25641.02564102564
aF0.0
aF0.0
aF22727.272727272728
aF0.0
asS'Bacteria.Proteobacteria.Deltaproteobacteria.Desulfobacterales.Desulfobulbaceae.Desulforhopalus'
p25
(lp26
F76923.07692307692
aF0.0
aF0.0
aF0.0
aF0.0
aF0.0
aF0.0
aF31250.0
asS'Bacteria.Proteobacteria.Alphaproteobacteria.Sneathiellales.Sneathiellaceae'
p27
(lp28
F0.0
aF30303.030303030304
aF0.0
aF76923.07692307692
aF0.0
aF0.0
aF0.0
aF31250.0
asS'Bacteria.Proteobacteria.Alphaproteobacteria.Rhizobiales.Brucellaceae.Ochrobactrum'
p29
(lp30
F0.0
aF0.0
aF32258.064516129034
aF0.0
aF0.0
aF0.0
aF0.0
aF0.0
asS'Bacteria.Proteobacteria.Gammaproteobacteria.Alteromonadales.Alteromonadaceae.Microbulbifer'
p31
(lp32
F76923.07692307692
aF30303.030303030304
aF64516.12903225807
aF0.0
aF31250.0
aF0.0
aF22727.272727272728
aF0.0
asS'Bacteria.Proteobacteria.Gammaproteobacteria.Alteromonadales.Alteromonadaceae.Bowmanella'
p33
(lp34
F38461.53846153846
aF0.0
aF0.0
aF0.0
aF0.0
aF0.0
aF0.0
aF0.0
asS'Bacteria.Proteobacteria.Alphaproteobacteria.Sphingomonadales.Erythrobacteraceae.Altererythrobacter'
p35
(lp36
F192307.6923076923
aF60606.06060606061
aF193548.3870967742
aF76923.07692307692
aF93750.0
aF0.0
aF45454.545454545456
aF187500.0
asS'Bacteria.Bacteroidetes.Sphingobacteria.Sphingobacteriales.Cyclobacteriaceae.Echinicola.vietnamensis'
p37
(lp38
F0.0
aF30303.030303030304
aF0.0
aF25641.02564102564
aF0.0
aF0.0
aF0.0
aF0.0
asS'Bacteria.Actinobacteria.Actinobacteria.Actinomycetales.Micrococcaceae.Arthrobacter'
p39
(lp40
F0.0
aF0.0
aF32258.064516129034
aF0.0
aF0.0
aF0.0
aF0.0
aF0.0
asS'Archaea.Crenarchaeota'
p41
(lp42
F0.0
aF0.0
aF0.0
aF51282.05128205128
aF0.0
aF0.0
aF0.0
aF0.0
asS'Bacteria.Proteobacteria.Betaproteobacteria.Neisseriales'
p43
(lp44
F38461.53846153846
aF0.0
aF32258.064516129034
aF0.0
aF0.0
aF0.0
aF0.0
aF0.0
asS'Bacteria.Bacteroidetes.Sphingobacteria'
p45
(lp46
F115384.61538461538
aF30303.030303030304
aF32258.064516129034
aF76923.07692307692
aF62500.0
aF0.0
aF22727.272727272728
aF62500.0
asS'Bacteria.Chloroflexi.Chloroflexi.Chloroflexales.Chloroflexaceae.Roseiflexus'
p47
(lp48
F0.0
aF0.0
aF0.0
aF0.0
aF62500.0
aF0.0
aF0.0
aF0.0
asS'Bacteria.Proteobacteria.Gammaproteobacteria.Aeromonadales.Aeromonadaceae.Zobellella.taiwanensis'
p49
(lp50
F0.0
aF0.0
aF96774.1935483871
aF0.0
aF0.0
aF0.0
aF0.0
aF0.0
asS'Bacteria.Actinobacteria.Actinobacteria.Acidimicrobiales.Acidimicrobiaceae'
p51
(lp52
F153846.15384615384
aF121212.12121212122
aF161290.32258064518
aF25641.02564102564
aF93750.0
aF200000.0
aF45454.545454545456
aF31250.0
asS'Bacteria.Proteobacteria.Betaproteobacteria.Rhodocyclales.Rhodocyclaceae.Azoarcus'
p53
(lp54
F38461.53846153846
aF0.0
aF0.0
aF0.0
aF0.0
aF0.0
aF0.0
aF0.0
asS'Bacteria.Proteobacteria.Gammaproteobacteria.Xanthomonadales.Xanthomonadaceae.Dokdonella'
p55
(lp56
F38461.53846153846
aF30303.030303030304
aF0.0
aF0.0
aF0.0
aF0.0
aF0.0
aF0.0
asS'Bacteria.Proteobacteria.Alphaproteobacteria.Rhizobiales.Rhodobiaceae.Parvibaculum'
p57
(lp58
F153846.15384615384
aF30303.030303030304
aF0.0
aF0.0
aF0.0
aF0.0
aF159090.9090909091
aF156250.0
asS'Bacteria.Spirochaetes.Spirochaetes.Spirochaetales.Spirochaetaceae'
p59
(lp60
F0.0
aF0.0
aF32258.064516129034
aF0.0
aF0.0
aF40000.0
aF0.0
aF0.0
asS'Bacteria.Chlamydiae.Chlamydiae.Chlamydiales.Criblamydiaceae'
p61
(lp62
F0.0
aF30303.030303030304
aF0.0
aF0.0
aF0.0
aF0.0
aF0.0
aF0.0
asS'Bacteria.Proteobacteria.Gammaproteobacteria.Pasteurellales.Pasteurellaceae.Pasteurella'
p63
(lp64
F0.0
aF0.0
aF0.0
aF0.0
aF0.0
aF0.0
aF0.0
aF31250.0
asS'Bacteria.Proteobacteria.Alphaproteobacteria.Rhizobiales.Phyllobacteriaceae'
p65
(lp66
F76923.07692307692
aF30303.030303030304
aF96774.1935483871
aF102564.10256410256
aF0.0
aF120000.0
aF68181.81818181818
aF0.0
asS'Bacteria.Firmicutes.Clostridia.Clostridiales.Ruminococcaceae.Acetivibrio'
p67
(lp68
F38461.53846153846
aF90909.09090909091
aF32258.064516129034
aF25641.02564102564
aF62500.0
aF40000.0
aF22727.272727272728
aF31250.0
asS'Bacteria.Firmicutes.Bacilli.Bacillales.Bacillaceae.Bacillus'
p69
(lp70
F153846.15384615384
aF363636.36363636365
aF0.0
aF51282.05128205128
aF718750.0
aF440000.0
aF272727.2727272727
aF156250.0
asS'Bacteria.Acidobacteria.Holophagae.Holophagales'
p71
(lp72
F0.0
aF0.0
aF0.0
aF25641.02564102564
aF0.0
aF0.0
aF0.0
aF0.0
asS'Bacteria.Proteobacteria.Alphaproteobacteria.Rhizobiales.Aurantimonadaceae.Fulvimarina'
p73
(lp74
F0.0
aF30303.030303030304
aF0.0
aF0.0
aF0.0
aF0.0
aF0.0
aF0.0
asS'Bacteria.Proteobacteria.Alphaproteobacteria.Rhizobiales.Hyphomicrobiaceae.Rhodoplanes'
p75
(lp76
F0.0
aF0.0
aF0.0
aF0.0
aF0.0
aF40000.0
aF0.0
aF31250.0
asS'Bacteria.Proteobacteria.Alphaproteobacteria.Rhizobiales.Phyllobacteriaceae.Hoeflea'
p77
(lp78
F38461.53846153846
aF30303.030303030304
aF0.0
aF76923.07692307692
aF0.0
aF0.0
aF0.0
aF0.0
asS'Bacteria.Verrucomicrobia.Spartobacteria.Chthoniobacterales.Xiphinematobacteriaceae'
p79
(lp80
F0.0
aF0.0
aF0.0
aF0.0
aF31250.0
aF0.0
aF0.0
aF0.0
asS'Bacteria.Bacteroidetes'
p81
(lp82
F115384.61538461538
aF30303.030303030304
aF64516.12903225807
aF102564.10256410256
aF93750.0
aF0.0
aF22727.272727272728
aF125000.0
asS'Bacteria.Actinobacteria.Actinobacteria.Acidimicrobiales.Acidimicrobiaceae.Ferrithrix'
p83
(lp84
F0.0
aF0.0
aF0.0
aF25641.02564102564
aF0.0
aF0.0
aF0.0
aF0.0
asS'Bacteria.WS3'
p85
(lp86
F230769.23076923075
aF272727.2727272727
aF161290.32258064518
aF333333.3333333333
aF187500.0
aF120000.0
aF90909.09090909091
aF31250.0
asS'Bacteria.Proteobacteria.Deltaproteobacteria.Syntrophobacterales.Syntrophobacteraceae.Syntrophobacter'
p87
(lp88
F38461.53846153846
aF0.0
aF0.0
aF0.0
aF0.0
aF40000.0
aF22727.272727272728
aF0.0
asS'Bacteria.Actinobacteria.Actinobacteria.Actinomycetales.Micromonosporaceae'
p89
(lp90
F0.0
aF0.0
aF32258.064516129034
aF0.0
aF0.0
aF40000.0
aF0.0
aF62500.0
asS'Bacteria.Firmicutes.Clostridia.Clostridiales.Ruminococcaceae.Papillibacter'
p91
(lp92
F38461.53846153846
aF0.0
aF0.0
aF0.0
aF0.0
aF0.0
aF0.0
aF0.0
asS'Bacteria.Firmicutes.Bacilli.Bacillales.Planococcaceae'
p93
(lp94
F0.0
aF30303.030303030304
aF0.0
aF0.0
aF31250.0
aF0.0
aF0.0
aF0.0
asS'Bacteria.Proteobacteria.Gammaproteobacteria.Pseudomonadales.Moraxellaceae'
p95
(lp96
F0.0
aF0.0
aF0.0
aF51282.05128205128
aF31250.0
aF80000.0
aF0.0
aF0.0
asS'Bacteria.Firmicutes.Clostridia.Clostridiales.Ruminococcaceae'
p97
(lp98
F76923.07692307692
aF30303.030303030304
aF64516.12903225807
aF25641.02564102564
aF31250.0
aF40000.0
aF22727.272727272728
aF156250.0
asS'Bacteria.Proteobacteria.Alphaproteobacteria.Rhodobacterales.Rhodobacteraceae.Thalassococcus'
p99
(lp100
F0.0
aF0.0
aF0.0
aF0.0
aF93750.0
aF0.0
aF0.0
aF0.0
asS'Bacteria.Deferribacteres'
p101
(lp102
F76923.07692307692
aF60606.06060606061
aF64516.12903225807
aF25641.02564102564
aF31250.0
aF80000.0
aF0.0
aF31250.0
asS'Bacteria.Proteobacteria.Deltaproteobacteria.Myxococcales.Nannocystaceae.Plesiocystis'
p103
(lp104
F0.0
aF0.0
aF0.0
aF0.0
aF0.0
aF0.0
aF0.0
aF31250.0
asS'Bacteria.Firmicutes.Erysipelotrichi.Erysipelotrichales'
p105
(lp106
F0.0
aF0.0
aF0.0
aF0.0
aF0.0
aF40000.0
aF0.0
aF0.0
asS'Bacteria.Planctomycetes.Planctomycetacia.Planctomycetales.Planctomycetaceae.Blastopirellula'
p107
(lp108
F38461.53846153846
aF393939.3939393939
aF96774.1935483871
aF179487.1794871795
aF93750.0
aF400000.0
aF68181.81818181818
aF125000.0
asS'Bacteria.Chlamydiae.Chlamydiae.Chlamydiales.Simkaniaceae.Simkania'
p109
(lp110
F0.0
aF0.0
aF0.0
aF0.0
aF0.0
aF0.0
aF22727.272727272728
aF0.0
asS'Bacteria.Chloroflexi.Anaerolineae.Anaerolineales.Anaerolinaceae.Anaerolinea'
p111
(lp112
F38461.53846153846
aF0.0
aF0.0
aF0.0
aF31250.0
aF0.0
aF0.0
aF0.0
asS'Bacteria.Acidobacteria.Holophagae.Holophagales.Holophagaceae'
p113
(lp114
F0.0
aF0.0
aF0.0
aF25641.02564102564
aF0.0
aF0.0
aF0.0
aF0.0
asS'Bacteria.Proteobacteria.Gammaproteobacteria.Alteromonadales.Moritellaceae.Paramoritella'
p115
(lp116
F0.0
aF0.0
aF0.0
aF25641.02564102564
aF0.0
aF0.0
aF0.0
aF0.0
asS'Bacteria.Proteobacteria.Gammaproteobacteria.Vibrionales.Vibrionaceae.Photobacterium.damselae'
p117
(lp118
F38461.53846153846
aF0.0
aF0.0
aF0.0
aF0.0
aF0.0
aF0.0
aF0.0
asS'Bacteria.Proteobacteria.Alphaproteobacteria.Rhodospirillales.Rhodospirillaceae.Pelagibius'
p119
(lp120
F576923.0769230769
aF575757.5757575758
aF387096.7741935484
aF256410.2564102564
aF375000.0
aF120000.0
aF318181.8181818182
aF781250.0
asS'Bacteria.Proteobacteria.Alphaproteobacteria.Rhodospirillales.Unassigned.Alysiosphaera'
p121
(lp122
F0.0
aF60606.06060606061
aF0.0
aF51282.05128205128
aF31250.0
aF0.0
aF0.0
aF0.0
asS'Bacteria.Proteobacteria.Alphaproteobacteria.Sphingomonadales.Sphingomonadaceae.Sphingopyxis'
p123
(lp124
F38461.53846153846
aF0.0
aF0.0
aF25641.02564102564
aF0.0
aF40000.0
aF22727.272727272728
aF0.0
asS'Bacteria.Firmicutes.Clostridia.Clostridiales.Clostridiaceae.Oxobacter'
p125
(lp126
F0.0
aF0.0
aF0.0
aF25641.02564102564
aF0.0
aF0.0
aF0.0
aF0.0
asS'Bacteria.Lentisphaerae.Lentisphaeria'
p127
(lp128
F76923.07692307692
aF30303.030303030304
aF32258.064516129034
aF153846.15384615384
aF31250.0
aF40000.0
aF45454.545454545456
aF0.0
asS'Bacteria.Bacteroidetes.Sphingobacteria.Sphingobacteriales.Flammeovirgaceae.Persicobacter'
p129
(lp130
F38461.53846153846
aF90909.09090909091
aF64516.12903225807
aF25641.02564102564
aF31250.0
aF0.0
aF22727.272727272728
aF93750.0
asS'Organelle.Mitochondria'
p131
(lp132
F0.0
aF0.0
aF0.0
aF0.0
aF0.0
aF0.0
aF45454.545454545456
aF0.0
asS'Bacteria.Proteobacteria.Alphaproteobacteria.Rhodobacterales.Rhodobacteraceae.Labrenzia'
p133
(lp134
F38461.53846153846
aF30303.030303030304
aF129032.25806451614
aF0.0
aF0.0
aF80000.0
aF0.0
aF0.0
asS'Bacteria.Deinococcus_Thermus.Deinococci'
p135
(lp136
F0.0
aF0.0
aF64516.12903225807
aF0.0
aF0.0
aF40000.0
aF0.0
aF0.0
asS'Bacteria.Proteobacteria.Gammaproteobacteria.Legionellales.Legionellaceae'
p137
(lp138
F76923.07692307692
aF0.0
aF0.0
aF25641.02564102564
aF0.0
aF0.0
aF0.0
aF31250.0
asS'Bacteria.Cyanobacteria.Cyanobacteria.SubsectionI.Unassigned.Acaryochloris'
p139
(lp140
F0.0
aF30303.030303030304
aF0.0
aF0.0
aF0.0
aF0.0
aF0.0
aF0.0
asS'Bacteria.Proteobacteria.Betaproteobacteria.Methylophilales.Methylophilaceae'
p141
(lp142
F76923.07692307692
aF0.0
aF0.0
aF0.0
aF0.0
aF0.0
aF0.0
aF0.0
asS'Bacteria.Firmicutes.Clostridia.Clostridiales.Ruminococcaceae.Butyricicoccus'
p143
(lp144
F0.0
aF30303.030303030304
aF0.0
aF0.0
aF0.0
aF0.0
aF0.0
aF0.0
asS'Bacteria.Firmicutes.Clostridia.Clostridiales.Syntrophomonadaceae.Syntrophomonas'
p145
(lp146
F0.0
aF0.0
aF32258.064516129034
aF0.0
aF0.0
aF0.0
aF0.0
aF0.0
asS'Bacteria.Bacteroidetes.Flavobacteria.Flavobacteriales.Flavobacteriaceae'
p147
(lp148
F76923.07692307692
aF30303.030303030304
aF32258.064516129034
aF25641.02564102564
aF0.0
aF0.0
aF0.0
aF31250.0
asS'Bacteria.Proteobacteria.Deltaproteobacteria.Desulfobacterales.Desulfobacteraceae.Desulfonema'
p149
(lp150
F0.0
aF30303.030303030304
aF0.0
aF0.0
aF0.0
aF0.0
aF0.0
aF0.0
asS'Bacteria.Proteobacteria.Gammaproteobacteria.Chromatiales.Ectothiorhodospiraceae.Thiohalospira.alkaliphila'
p151
(lp152
F0.0
aF0.0
aF64516.12903225807
aF0.0
aF0.0
aF0.0
aF0.0
aF0.0
asS'Bacteria.Proteobacteria.Deltaproteobacteria.Syntrophobacterales.Syntrophaceae'
p153
(lp154
F38461.53846153846
aF0.0
aF0.0
aF0.0
aF0.0
aF0.0
aF45454.545454545456
aF0.0
asS'Bacteria.OD1'
p155
(lp156
F307692.3076923077
aF181818.18181818182
aF161290.32258064518
aF51282.05128205128
aF62500.0
aF80000.0
aF113636.36363636365
aF62500.0
asS'Bacteria.Proteobacteria.Alphaproteobacteria.Rhizobiales.Bartonellaceae.Bartonella'
p157
(lp158
F38461.53846153846
aF0.0
aF0.0
aF0.0
aF62500.0
aF0.0
aF0.0
aF31250.0
asS'Bacteria.Firmicutes.Bacilli.Lactobacillales.Carnobacteriaceae'
p159
(lp160
F0.0
aF0.0
aF0.0
aF0.0
aF0.0
aF40000.0
aF0.0
aF0.0
asS'Bacteria.Proteobacteria.Gammaproteobacteria.Enterobacteriales'
p161
(lp162
F153846.15384615384
aF181818.18181818182
aF96774.1935483871
aF0.0
aF125000.0
aF80000.0
aF0.0
aF125000.0
asS'Bacteria.Deferribacteres.Deferribacteres.Deferribacterales.Unassigned.Caldithrix'
p163
(lp164
F38461.53846153846
aF181818.18181818182
aF322580.64516129036
aF487179.4871794872
aF0.0
aF0.0
aF0.0
aF125000.0
asS'Bacteria.Acidobacteria.Acidobacteria.Acidobacteriales.Acidobacteriaceae.Chloroacidobacterium'
p165
(lp166
F76923.07692307692
aF30303.030303030304
aF64516.12903225807
aF51282.05128205128
aF93750.0
aF160000.0
aF22727.272727272728
aF0.0
asS'Bacteria.Bacteroidetes.Flavobacteria.Flavobacteriales'
p167
(lp168
F0.0
aF0.0
aF32258.064516129034
aF0.0
aF0.0
aF0.0
aF0.0
aF0.0
asS'Bacteria.Proteobacteria.Gammaproteobacteria.Oceanospirillales.Alcanivoracaceae.Alcanivorax'
p169
(lp170
F0.0
aF0.0
aF32258.064516129034
aF0.0
aF0.0
aF120000.0
aF0.0
aF62500.0
asS'Bacteria.Verrucomicrobia.Opitutae.Puniceicoccales'
p171
(lp172
F0.0
aF0.0
aF0.0
aF25641.02564102564
aF31250.0
aF0.0
aF0.0
aF0.0
asS'Bacteria.Proteobacteria.Gammaproteobacteria.Xanthomonadales.Xanthomonadaceae.Pseudoxanthomonas'
p173
(lp174
F38461.53846153846
aF0.0
aF0.0
aF0.0
aF0.0
aF0.0
aF0.0
aF0.0
asS'Organelle.Chloroplast.Bacillariophyta'
p175
(lp176
F692307.6923076923
aF363636.36363636365
aF2032258.0645161292
aF435897.4358974359
aF625000.0
aF160000.0
aF272727.2727272727
aF1031250.0
asS'Bacteria.Firmicutes.Clostridia.Clostridiales.Ruminococcaceae.Oscillospira'
p177
(lp178
F0.0
aF30303.030303030304
aF0.0
aF0.0
aF0.0
aF0.0
aF0.0
aF0.0
asS'Bacteria.Actinobacteria.Actinobacteria.Actinomycetales.Nocardiaceae.Rhodococcus'
p179
(lp180
F38461.53846153846
aF0.0
aF0.0
aF0.0
aF0.0
aF0.0
aF0.0
aF0.0
asS'Bacteria.Proteobacteria.Alphaproteobacteria.Rhizobiales'
p181
(lp182
F115384.61538461538
aF121212.12121212122
aF0.0
aF76923.07692307692
aF125000.0
aF120000.0
aF181818.18181818182
aF125000.0
asS'Bacteria.Chlamydiae.Chlamydiae.Chlamydiales.Waddliaceae'
p183
(lp184
F0.0
aF30303.030303030304
aF0.0
aF0.0
aF0.0
aF0.0
aF22727.272727272728
aF0.0
asS'Bacteria.Planctomycetes.Phycisphaerae'
p185
(lp186
F230769.23076923075
aF181818.18181818182
aF258064.51612903227
aF307692.3076923077
aF156250.0
aF120000.0
aF181818.18181818182
aF218750.0
asS'Bacteria.Bacteroidetes.Sphingobacteria.Sphingobacteriales.Rhodothermaceae.Rhodothermus'
p187
(lp188
F0.0
aF0.0
aF0.0
aF0.0
aF0.0
aF40000.0
aF0.0
aF31250.0
asS'Bacteria.Proteobacteria.Deltaproteobacteria.Desulfovibrionales'
p189
(lp190
F38461.53846153846
aF30303.030303030304
aF0.0
aF76923.07692307692
aF31250.0
aF120000.0
aF22727.272727272728
aF31250.0
asS'Bacteria.Firmicutes.Clostridia.Clostridiales.Eubacteriaceae.Acetobacterium'
p191
(lp192
F0.0
aF0.0
aF0.0
aF0.0
aF0.0
aF0.0
aF22727.272727272728
aF0.0
asS'Bacteria.Firmicutes.Bacilli.Lactobacillales'
p193
(lp194
F38461.53846153846
aF0.0
aF0.0
aF25641.02564102564
aF0.0
aF40000.0
aF0.0
aF0.0
asS'Bacteria.Proteobacteria.Betaproteobacteria.Burkholderiales.Oxalobacteraceae'
p195
(lp196
F0.0
aF0.0
aF0.0
aF0.0
aF0.0
aF0.0
aF0.0
aF31250.0
asS'Bacteria.Proteobacteria.Epsilonproteobacteria'
p197
(lp198
F0.0
aF0.0
aF0.0
aF0.0
aF0.0
aF0.0
aF0.0
aF31250.0
asS'Bacteria.Chlorobi.Chlorobia'
p199
(lp200
F423076.92307692306
aF212121.21212121213
aF129032.25806451614
aF256410.2564102564
aF312500.0
aF720000.0
aF22727.272727272728
aF62500.0
asS'Bacteria.Proteobacteria.Gammaproteobacteria.Thiotrichales'
p201
(lp202
F0.0
aF60606.06060606061
aF32258.064516129034
aF0.0
aF0.0
aF0.0
aF22727.272727272728
aF0.0
asS'Bacteria.TG_1'
p203
(lp204
F38461.53846153846
aF0.0
aF64516.12903225807
aF0.0
aF0.0
aF80000.0
aF68181.81818181818
aF31250.0
asS'Bacteria.Proteobacteria.Gammaproteobacteria.Pseudomonadales'
p205
(lp206
F115384.61538461538
aF30303.030303030304
aF32258.064516129034
aF76923.07692307692
aF156250.0
aF120000.0
aF0.0
aF31250.0
asS'Bacteria.Deinococcus_Thermus.Deinococci.Deinococcales.Deinococcaceae.Deinococcus'
p207
(lp208
F0.0
aF0.0
aF64516.12903225807
aF0.0
aF0.0
aF40000.0
aF0.0
aF0.0
asS'Bacteria.Cyanobacteria'
p209
(lp210
F38461.53846153846
aF0.0
aF0.0
aF25641.02564102564
aF62500.0
aF40000.0
aF22727.272727272728
aF31250.0
asS'Bacteria.Firmicutes.Bacilli.Lactobacillales.Enterococcaceae.Tetragenococcus'
p211
(lp212
F38461.53846153846
aF0.0
aF0.0
aF0.0
aF0.0
aF0.0
aF0.0
aF0.0
asS'Bacteria.Actinobacteria.Actinobacteria.Actinomycetales.Cellulomonadaceae.Actinotalea'
p213
(lp214
F38461.53846153846
aF30303.030303030304
aF32258.064516129034
aF0.0
aF62500.0
aF280000.0
aF0.0
aF0.0
asS'Bacteria.Proteobacteria.Gammaproteobacteria.Enterobacteriales.Enterobacteriaceae.Serratia'
p215
(lp216
F0.0
aF30303.030303030304
aF0.0
aF0.0
aF0.0
aF0.0
aF0.0
aF0.0
asS'Bacteria.Actinobacteria.Actinobacteria.Acidimicrobiales.Unassigned'
p217
(lp218
F0.0
aF0.0
aF0.0
aF25641.02564102564
aF0.0
aF0.0
aF22727.272727272728
aF0.0
asS'Bacteria.Proteobacteria.Gammaproteobacteria.Legionellales'
p219
(lp220
F76923.07692307692
aF90909.09090909091
aF96774.1935483871
aF51282.05128205128
aF0.0
aF0.0
aF22727.272727272728
aF31250.0
asS'Bacteria.Acidobacteria.Acidobacteria'
p221
(lp222
F1076923.076923077
aF1545454.5454545454
aF1032258.0645161291
aF615384.6153846154
aF1687500.0
aF1760000.0
aF977272.7272727273
aF1812500.0
asS'Bacteria.Proteobacteria.Gammaproteobacteria.Alteromonadales.Alteromonadaceae.Unassigned'
p223
(lp224
F76923.07692307692
aF0.0
aF64516.12903225807
aF102564.10256410256
aF62500.0
aF80000.0
aF22727.272727272728
aF0.0
asS'Bacteria.Actinobacteria.Actinobacteria.Actinomycetales.Intrasporangiaceae'
p225
(lp226
F0.0
aF0.0
aF0.0
aF0.0
aF0.0
aF40000.0
aF0.0
aF0.0
asS'Bacteria.Proteobacteria.Gammaproteobacteria.Alteromonadales.Alteromonadaceae.Endobugula'
p227
(lp228
F38461.53846153846
aF30303.030303030304
aF129032.25806451614
aF51282.05128205128
aF31250.0
aF0.0
aF22727.272727272728
aF62500.0
asS'Bacteria.Actinobacteria.Actinobacteria.Actinomycetales.Sporichthyaceae.Sporichthya'
p229
(lp230
F0.0
aF0.0
aF32258.064516129034
aF0.0
aF0.0
aF0.0
aF0.0
aF0.0
asS'Bacteria.Cyanobacteria.Cyanobacteria.SubsectionI.Unassigned.Cyanothece'
p231
(lp232
F0.0
aF0.0
aF0.0
aF0.0
aF0.0
aF40000.0
aF0.0
aF0.0
asS'Bacteria.Proteobacteria.Alphaproteobacteria.Rhodospirillales.Rhodospirillaceae.Rhodovibrio.salinarum'
p233
(lp234
F38461.53846153846
aF0.0
aF0.0
aF0.0
aF0.0
aF0.0
aF0.0
aF0.0
asS'Bacteria.Firmicutes.Bacilli.Bacillales.Bacillaceae.Bacillus.niabensis'
p235
(lp236
F0.0
aF0.0
aF0.0
aF0.0
aF0.0
aF40000.0
aF0.0
aF0.0
asS'Bacteria.Actinobacteria.Actinobacteria.Rubrobacterales.Rubrobacteriaceae.Rubrobacter'
p237
(lp238
F0.0
aF30303.030303030304
aF0.0
aF0.0
aF0.0
aF0.0
aF0.0
aF0.0
asS'Bacteria.Proteobacteria.Alphaproteobacteria.Rhizobiales.Methylobacteriaceae.Methylobacterium'
p239
(lp240
F0.0
aF0.0
aF0.0
aF25641.02564102564
aF31250.0
aF0.0
aF0.0
aF0.0
asS'Bacteria.Proteobacteria.Deltaproteobacteria.Desulfobacterales.Desulfobacteraceae.Desulfocella'
p241
(lp242
F0.0
aF0.0
aF32258.064516129034
aF0.0
aF0.0
aF0.0
aF0.0
aF0.0
asS'Bacteria.Proteobacteria.Alphaproteobacteria.Rhizobiales.Hyphomicrobiaceae.Devosia'
p243
(lp244
F153846.15384615384
aF121212.12121212122
aF96774.1935483871
aF76923.07692307692
aF218750.0
aF400000.0
aF90909.09090909091
aF0.0
asS'Bacteria.Bacteroidetes.Sphingobacteria.Sphingobacteriales.Flammeovirgaceae.Reichenbachiella'
p245
(lp246
F0.0
aF30303.030303030304
aF32258.064516129034
aF0.0
aF0.0
aF0.0
aF0.0
aF0.0
asS'Bacteria.Proteobacteria.Alphaproteobacteria.Rhodobacterales.Rhodobacteraceae.Paracoccus'
p247
(lp248
F0.0
aF30303.030303030304
aF0.0
aF0.0
aF0.0
aF0.0
aF0.0
aF0.0
asS'Bacteria.Proteobacteria.Deltaproteobacteria.Bdellovibrionales.Bacteriovoraceae'
p249
(lp250
F38461.53846153846
aF0.0
aF32258.064516129034
aF51282.05128205128
aF31250.0
aF0.0
aF181818.18181818182
aF187500.0
asS'Bacteria.Proteobacteria.Gammaproteobacteria.Vibrionales.Vibrionaceae.Photobacterium.ganghwense'
p251
(lp252
F0.0
aF0.0
aF0.0
aF0.0
aF0.0
aF40000.0
aF0.0
aF0.0
asS'Bacteria.Proteobacteria.Alphaproteobacteria.Rhizobiales.Bradyrhizobiaceae.Afipia'
p253
(lp254
F38461.53846153846
aF0.0
aF0.0
aF25641.02564102564
aF0.0
aF40000.0
aF0.0
aF0.0
asS'Bacteria.Proteobacteria.Alphaproteobacteria.Sphingomonadales.Sphingomonadaceae.Sphingomonas'
p255
(lp256
F0.0
aF30303.030303030304
aF32258.064516129034
aF25641.02564102564
aF187500.0
aF0.0
aF22727.272727272728
aF31250.0
asS'Bacteria.Firmicutes.Clostridia.Clostridiales.Ruminococcaceae.Oscillibacter'
p257
(lp258
F0.0
aF0.0
aF0.0
aF0.0
aF31250.0
aF0.0
aF0.0
aF0.0
asS'Bacteria.Proteobacteria.Gammaproteobacteria.Alteromonadales.Alteromonadaceae.Haliea'
p259
(lp260
F0.0
aF90909.09090909091
aF32258.064516129034
aF51282.05128205128
aF0.0
aF0.0
aF45454.545454545456
aF0.0
asS'Bacteria.Proteobacteria.Gammaproteobacteria.Pseudomonadales.Pseudomonadaceae'
p261
(lp262
F115384.61538461538
aF30303.030303030304
aF32258.064516129034
aF25641.02564102564
aF125000.0
aF40000.0
aF0.0
aF31250.0
asS'Bacteria.Nitrospirae.Nitrospira.Nitrospirales'
p263
(lp264
F0.0
aF0.0
aF0.0
aF0.0
aF0.0
aF40000.0
aF0.0
aF0.0
asS'Bacteria.Actinobacteria.Actinobacteria.Actinomycetales.Pseudonocardiaceae'
p265
(lp266
F0.0
aF30303.030303030304
aF0.0
aF25641.02564102564
aF31250.0
aF40000.0
aF0.0
aF0.0
asS'Bacteria.Proteobacteria.Gammaproteobacteria.Pseudomonadales.Pseudomonadaceae.Pseudomonas'
p267
(lp268
F115384.61538461538
aF30303.030303030304
aF32258.064516129034
aF25641.02564102564
aF125000.0
aF40000.0
aF0.0
aF31250.0
asS'Bacteria.Proteobacteria.Alphaproteobacteria.Rhizobiales.Rhizobiaceae.Rhizobium'
p269
(lp270
F38461.53846153846
aF30303.030303030304
aF0.0
aF0.0
aF0.0
aF0.0
aF0.0
aF0.0
asS'Bacteria.Proteobacteria.Deltaproteobacteria.Myxococcales.Nannocystaceae.Nannocystis'
p271
(lp272
F0.0
aF30303.030303030304
aF0.0
aF0.0
aF0.0
aF0.0
aF0.0
aF0.0
asS'Bacteria.Proteobacteria.Gammaproteobacteria.Methylococcales.Methylococcaceae.Methylomicrobium.kenyense'
p273
(lp274
F0.0
aF0.0
aF0.0
aF0.0
aF0.0
aF0.0
aF0.0
aF31250.0
asS'Bacteria.Bacteroidetes.Sphingobacteria.Sphingobacteriales.Saprospiraceae'
p275
(lp276
F0.0
aF30303.030303030304
aF0.0
aF25641.02564102564
aF0.0
aF0.0
aF0.0
aF0.0
asS'Bacteria.Actinobacteria.Actinobacteria.Rubrobacterales.Rubrobacteriaceae'
p277
(lp278
F0.0
aF30303.030303030304
aF0.0
aF0.0
aF0.0
aF0.0
aF0.0
aF0.0
asS'Bacteria.Proteobacteria.Alphaproteobacteria.Caulobacterales.Hyphomonadaceae.Maricaulis'
p279
(lp280
F38461.53846153846
aF0.0
aF0.0
aF25641.02564102564
aF31250.0
aF0.0
aF0.0
aF0.0
asS'Bacteria.Chloroflexi.Thermomicrobia.Sphaerobacterales'
p281
(lp282
F38461.53846153846
aF30303.030303030304
aF0.0
aF0.0
aF0.0
aF0.0
aF45454.545454545456
aF0.0
asS'Bacteria.Cyanobacteria.Cyanobacteria.SubsectionI.Unassigned'
p283
(lp284
F38461.53846153846
aF30303.030303030304
aF0.0
aF0.0
aF0.0
aF40000.0
aF0.0
aF0.0
asS'Bacteria.Proteobacteria.Gammaproteobacteria.Xanthomonadales.Xanthomonadaceae.Lysobacter'
p285
(lp286
F0.0
aF0.0
aF0.0
aF25641.02564102564
aF0.0
aF0.0
aF0.0
aF0.0
asS'Bacteria.Firmicutes.Clostridia.Halanaerobiales.Halanaerobiaceae.Halothermothrix.orenii'
p287
(lp288
F0.0
aF0.0
aF32258.064516129034
aF0.0
aF0.0
aF0.0
aF0.0
aF0.0
asS'Bacteria.Proteobacteria.Gammaproteobacteria.Methylococcales'
p289
(lp290
F0.0
aF0.0
aF0.0
aF0.0
aF0.0
aF0.0
aF0.0
aF31250.0
asS'Bacteria.Proteobacteria.Alphaproteobacteria.Sphingomonadales.Erythrobacteraceae'
p291
(lp292
F38461.53846153846
aF0.0
aF32258.064516129034
aF0.0
aF93750.0
aF0.0
aF0.0
aF0.0
asS'Bacteria.Proteobacteria.Betaproteobacteria.Methylophilales.Methylophilaceae.Methylophilus'
p293
(lp294
F153846.15384615384
aF60606.06060606061
aF0.0
aF153846.15384615384
aF0.0
aF0.0
aF0.0
aF0.0
asS'Bacteria.Proteobacteria.Deltaproteobacteria.Desulfobacterales.Desulfobulbaceae'
p295
(lp296
F38461.53846153846
aF30303.030303030304
aF0.0
aF0.0
aF0.0
aF0.0
aF0.0
aF0.0
asS'Bacteria.Actinobacteria.Actinobacteria.Actinomycetales.Sporichthyaceae'
p297
(lp298
F0.0
aF0.0
aF32258.064516129034
aF0.0
aF0.0
aF0.0
aF0.0
aF0.0
asS'Bacteria.Proteobacteria.Deltaproteobacteria.Desulfobacterales.Desulfobacteraceae.Desulfatiferula'
p299
(lp300
F0.0
aF60606.06060606061
aF0.0
aF0.0
aF0.0
aF0.0
aF0.0
aF0.0
asS'Bacteria.Proteobacteria.Gammaproteobacteria.Xanthomonadales.Xanthomonadaceae.Arenimonas'
p301
(lp302
F0.0
aF0.0
aF32258.064516129034
aF0.0
aF0.0
aF0.0
aF0.0
aF0.0
asS'Bacteria.Planctomycetes.Phycisphaerae.Phycisphaerales'
p303
(lp304
F76923.07692307692
aF30303.030303030304
aF0.0
aF153846.15384615384
aF0.0
aF0.0
aF0.0
aF0.0
asS'Bacteria.Thermotogae.Thermotogae.Thermotogales.Thermotogaceae.Kosmotoga'
p305
(lp306
F0.0
aF0.0
aF0.0
aF25641.02564102564
aF0.0
aF0.0
aF0.0
aF0.0
asS'Bacteria.Proteobacteria.Alphaproteobacteria.Rhodobacterales.Rhodobacteraceae.Roseivivax'
p307
(lp308
F0.0
aF30303.030303030304
aF0.0
aF0.0
aF0.0
aF0.0
aF0.0
aF0.0
asS'Bacteria.Proteobacteria.Alphaproteobacteria.Rhodobacterales.Rhodobacteraceae.Nereida'
p309
(lp310
F0.0
aF0.0
aF0.0
aF25641.02564102564
aF0.0
aF0.0
aF0.0
aF0.0
asS'Bacteria.Proteobacteria.Epsilonproteobacteria.Campylobacterales.Helicobacteraceae.Sulfurovum'
p311
(lp312
F0.0
aF0.0
aF32258.064516129034
aF51282.05128205128
aF0.0
aF0.0
aF22727.272727272728
aF0.0
asS'Bacteria.Proteobacteria.Gammaproteobacteria.Xanthomonadales'
p313
(lp314
F2423076.923076923
aF1878787.878787879
aF1806451.612903226
aF948717.9487179487
aF1000000.0
aF1160000.0
aF636363.6363636364
aF843750.0
asS'Bacteria.Verrucomicrobia.Verrucomicrobiae.Verrucomicrobiales.Verrucomicrobiaceae.Luteolibacter.algae'
p315
(lp316
F38461.53846153846
aF0.0
aF0.0
aF0.0
aF93750.0
aF0.0
aF0.0
aF0.0
asS'Bacteria.Firmicutes.Clostridia.Clostridiales.Gracilibacteraceae'
p317
(lp318
F0.0
aF30303.030303030304
aF0.0
aF0.0
aF0.0
aF0.0
aF0.0
aF0.0
asS'Bacteria.Chlamydiae.Chlamydiae.Chlamydiales'
p319
(lp320
F76923.07692307692
aF30303.030303030304
aF0.0
aF51282.05128205128
aF187500.0
aF120000.0
aF90909.09090909091
aF156250.0
asS'Bacteria.Nitrospirae.Nitrospira.Nitrospirales.Nitrospiraceae.Nitrospira'
p321
(lp322
F38461.53846153846
aF212121.21212121213
aF129032.25806451614
aF333333.3333333333
aF375000.0
aF520000.0
aF159090.9090909091
aF125000.0
asS'Bacteria.Proteobacteria.Deltaproteobacteria.Syntrophobacterales'
p323
(lp324
F76923.07692307692
aF30303.030303030304
aF161290.32258064518
aF76923.07692307692
aF0.0
aF0.0
aF45454.545454545456
aF0.0
asS'Bacteria.Proteobacteria.Alphaproteobacteria.Rickettsiales'
p325
(lp326
F38461.53846153846
aF30303.030303030304
aF96774.1935483871
aF0.0
aF0.0
aF40000.0
aF113636.36363636365
aF156250.0
asS'Bacteria.Proteobacteria.Gammaproteobacteria.Pseudomonadales.Pseudomonadaceae.Pseudomonas.aeruginosa'
p327
(lp328
F0.0
aF0.0
aF64516.12903225807
aF51282.05128205128
aF0.0
aF40000.0
aF0.0
aF0.0
asS'Bacteria.Proteobacteria.Gammaproteobacteria.Thiotrichales.Piscirickettsiaceae.Thiomicrospira'
p329
(lp330
F0.0
aF60606.06060606061
aF0.0
aF25641.02564102564
aF0.0
aF0.0
aF0.0
aF0.0
asS'Bacteria.Firmicutes.Clostridia.Clostridiales.Unassigned.Anaerovorax'
p331
(lp332
F0.0
aF0.0
aF0.0
aF0.0
aF31250.0
aF0.0
aF0.0
aF0.0
asS'Bacteria.Proteobacteria.Betaproteobacteria.Rhodocyclales.Rhodocyclaceae.Thauera'
p333
(lp334
F0.0
aF0.0
aF32258.064516129034
aF0.0
aF0.0
aF0.0
aF0.0
aF0.0
asS'Bacteria.Proteobacteria.Gammaproteobacteria.Vibrionales.Vibrionaceae.Vibrio'
p335
(lp336
F0.0
aF30303.030303030304
aF0.0
aF25641.02564102564
aF0.0
aF40000.0
aF0.0
aF0.0
asS'Bacteria.Cyanobacteria.Cyanobacteria.SubsectionIV'
p337
(lp338
F0.0
aF0.0
aF0.0
aF0.0
aF31250.0
aF0.0
aF45454.545454545456
aF0.0
asS'Bacteria.Bacteroidetes.Sphingobacteria.Sphingobacteriales.Flammeovirgaceae'
p339
(lp340
F76923.07692307692
aF30303.030303030304
aF64516.12903225807
aF0.0
aF93750.0
aF80000.0
aF90909.09090909091
aF125000.0
asS'Bacteria.Proteobacteria.Deltaproteobacteria.Desulfuromonadales.Geobacteraceae.Geopsychrobacter'
p341
(lp342
F0.0
aF0.0
aF0.0
aF25641.02564102564
aF0.0
aF0.0
aF0.0
aF0.0
asS'Bacteria.Proteobacteria.Gammaproteobacteria.Oceanospirillales.Halomonadaceae.Zymobacter.palmae'
p343
(lp344
F0.0
aF0.0
aF32258.064516129034
aF0.0
aF0.0
aF0.0
aF0.0
aF0.0
asS'Bacteria.Chlamydiae.Chlamydiae'
p345
(lp346
F76923.07692307692
aF30303.030303030304
aF0.0
aF51282.05128205128
aF187500.0
aF120000.0
aF90909.09090909091
aF156250.0
asS'Bacteria.Proteobacteria.Gammaproteobacteria.Alteromonadales.Pseudoalteromonadaceae.Algicola'
p347
(lp348
F0.0
aF0.0
aF32258.064516129034
aF0.0
aF0.0
aF0.0
aF0.0
aF0.0
asS'Bacteria.Proteobacteria.Alphaproteobacteria.Caulobacterales.Hyphomonadaceae.Hirschia'
p349
(lp350
F38461.53846153846
aF30303.030303030304
aF64516.12903225807
aF25641.02564102564
aF62500.0
aF0.0
aF0.0
aF0.0
asS'Bacteria.Proteobacteria.Betaproteobacteria.Burkholderiales.Comamonadaceae.Aquabacterium'
p351
(lp352
F0.0
aF0.0
aF0.0
aF25641.02564102564
aF0.0
aF0.0
aF0.0
aF0.0
asS'Bacteria.Proteobacteria.Gammaproteobacteria.Alteromonadales.Pseudoalteromonadaceae.Algicola.bacteriolytica'
p353
(lp354
F0.0
aF0.0
aF32258.064516129034
aF0.0
aF0.0
aF0.0
aF0.0
aF0.0
asS'Bacteria.Bacteroidetes.Flavobacteria'
p355
(lp356
F0.0
aF0.0
aF32258.064516129034
aF0.0
aF0.0
aF0.0
aF0.0
aF0.0
asS'Bacteria.Planctomycetes.Planctomycetacia.Planctomycetales.Planctomycetaceae.Planctomyces'
p357
(lp358
F230769.23076923075
aF303030.30303030304
aF290322.58064516133
aF179487.1794871795
aF312500.0
aF760000.0
aF227272.7272727273
aF156250.0
asS'Bacteria.Chloroflexi.Dehalococcoidetes.Unassigned.Unassigned'
p359
(lp360
F38461.53846153846
aF0.0
aF0.0
aF0.0
aF31250.0
aF40000.0
aF45454.545454545456
aF31250.0
asS'Bacteria.Spirochaetes.Spirochaetes'
p361
(lp362
F0.0
aF0.0
aF0.0
aF25641.02564102564
aF0.0
aF0.0
aF0.0
aF0.0
asS'Bacteria.Actinobacteria.Actinobacteria.Actinomycetales'
p363
(lp364
F38461.53846153846
aF90909.09090909091
aF32258.064516129034
aF25641.02564102564
aF125000.0
aF0.0
aF0.0
aF0.0
asS'Bacteria.Proteobacteria.Gammaproteobacteria.Pasteurellales.Pasteurellaceae.Nicoletella.semolina'
p365
(lp366
F0.0
aF0.0
aF0.0
aF0.0
aF0.0
aF40000.0
aF0.0
aF0.0
asS'Bacteria.Acidobacteria.Holophagae.Acanthopleuribacterales.Acanthopleuribacteraceae.Acanthopleuribacter'
p367
(lp368
F0.0
aF60606.06060606061
aF64516.12903225807
aF0.0
aF0.0
aF0.0
aF0.0
aF0.0
asS'Bacteria.Proteobacteria.Alphaproteobacteria.Rhizobiales.Xanthobacteraceae'
p369
(lp370
F0.0
aF30303.030303030304
aF32258.064516129034
aF0.0
aF62500.0
aF80000.0
aF0.0
aF93750.0
asS'Bacteria.Actinobacteria.Actinobacteria.Actinomycetales.Microbacteriaceae.Microbacterium'
p371
(lp372
F0.0
aF0.0
aF32258.064516129034
aF25641.02564102564
aF0.0
aF0.0
aF0.0
aF31250.0
asS'Bacteria.Proteobacteria.Alphaproteobacteria.Rickettsiales.Rickettsiaceae'
p373
(lp374
F38461.53846153846
aF0.0
aF0.0
aF0.0
aF0.0
aF0.0
aF0.0
aF0.0
asS'Bacteria.Proteobacteria.Alphaproteobacteria.Parvularculales'
p375
(lp376
F38461.53846153846
aF60606.06060606061
aF129032.25806451614
aF25641.02564102564
aF0.0
aF480000.0
aF90909.09090909091
aF31250.0
asS'Bacteria.Proteobacteria.Gammaproteobacteria.Unassigned'
p377
(lp378
F115384.61538461538
aF90909.09090909091
aF0.0
aF76923.07692307692
aF93750.0
aF80000.0
aF159090.9090909091
aF31250.0
asS'Bacteria.Thermotogae.Thermotogae'
p379
(lp380
F0.0
aF0.0
aF0.0
aF25641.02564102564
aF0.0
aF0.0
aF0.0
aF0.0
asS'Bacteria.Actinobacteria.Actinobacteria.Actinomycetales.Micromonosporaceae.Planosporangium'
p381
(lp382
F0.0
aF0.0
aF0.0
aF0.0
aF0.0
aF40000.0
aF0.0
aF0.0
asS'Bacteria.Firmicutes.Bacilli.Lactobacillales.Carnobacteriaceae.Granulicatella'
p383
(lp384
F0.0
aF0.0
aF0.0
aF0.0
aF0.0
aF40000.0
aF0.0
aF0.0
asS'Bacteria.Proteobacteria.Deltaproteobacteria.Desulfuromonadales.Desulfuromonadaceae.Desulfuromonas.palmitatis'
p385
(lp386
F0.0
aF0.0
aF0.0
aF0.0
aF0.0
aF80000.0
aF0.0
aF0.0
asS'Bacteria.Actinobacteria.Actinobacteria.Nitriliruptorales'
p387
(lp388
F38461.53846153846
aF121212.12121212122
aF96774.1935483871
aF0.0
aF31250.0
aF920000.0
aF68181.81818181818
aF0.0
asS'Bacteria.Actinobacteria.Actinobacteria.Actinomycetales.Mycobacteriaceae.Mycobacterium.doricum'
p389
(lp390
F0.0
aF0.0
aF0.0
aF0.0
aF31250.0
aF0.0
aF0.0
aF0.0
asS'Bacteria.Proteobacteria.Alphaproteobacteria.Rhodobacterales.Rhodobacteraceae.Citreicella'
p391
(lp392
F0.0
aF0.0
aF0.0
aF0.0
aF0.0
aF40000.0
aF0.0
aF0.0
asS'Bacteria.Proteobacteria.Gammaproteobacteria.Pasteurellales.Pasteurellaceae.Haemophilus.influenzae'
p393
(lp394
F0.0
aF0.0
aF0.0
aF0.0
aF0.0
aF40000.0
aF0.0
aF0.0
asS'Bacteria.Spirochaetes'
p395
(lp396
F0.0
aF0.0
aF0.0
aF25641.02564102564
aF0.0
aF0.0
aF0.0
aF0.0
asS'Bacteria.Proteobacteria.Gammaproteobacteria.Acidithiobacillales'
p397
(lp398
F0.0
aF0.0
aF0.0
aF25641.02564102564
aF0.0
aF0.0
aF0.0
aF0.0
asS'Bacteria.Proteobacteria.Betaproteobacteria.Burkholderiales.Comamonadaceae'
p399
(lp400
F0.0
aF0.0
aF0.0
aF25641.02564102564
aF0.0
aF0.0
aF0.0
aF0.0
asS'Organelle'
p401
(lp402
F0.0
aF0.0
aF0.0
aF0.0
aF0.0
aF40000.0
aF45454.545454545456
aF0.0
asS'Bacteria.Proteobacteria.Gammaproteobacteria.Oceanospirillales.Oceanospirillaceae.Pseudospirillum'
p403
(lp404
F38461.53846153846
aF30303.030303030304
aF32258.064516129034
aF25641.02564102564
aF62500.0
aF120000.0
aF68181.81818181818
aF93750.0
asS'Bacteria.Proteobacteria.Alphaproteobacteria.Rhodobacterales.Rhodobacteraceae.Thalassobacter'
p405
(lp406
F0.0
aF0.0
aF0.0
aF0.0
aF31250.0
aF0.0
aF0.0
aF0.0
asS'Bacteria.Chlamydiae.Chlamydiae.Chlamydiales.Parachlamydiaceae.Protochlamydia'
p407
(lp408
F0.0
aF60606.06060606061
aF0.0
aF0.0
aF31250.0
aF80000.0
aF0.0
aF31250.0
asS'Bacteria.Proteobacteria.Alphaproteobacteria.Rhizobiales.Unassigned'
p409
(lp410
F38461.53846153846
aF30303.030303030304
aF0.0
aF0.0
aF31250.0
aF0.0
aF0.0
aF0.0
asS'Bacteria.Proteobacteria.Alphaproteobacteria.Sneathiellales'
p411
(lp412
F0.0
aF30303.030303030304
aF0.0
aF76923.07692307692
aF0.0
aF0.0
aF0.0
aF31250.0
asS'Bacteria.Firmicutes.Clostridia.Halanaerobiales.Halanaerobiaceae.Halothermothrix'
p413
(lp414
F0.0
aF0.0
aF32258.064516129034
aF0.0
aF0.0
aF0.0
aF0.0
aF0.0
asS'Bacteria.Proteobacteria.Alphaproteobacteria.Sphingomonadales.Erythrobacteraceae.Erythrobacter'
p415
(lp416
F115384.61538461538
aF30303.030303030304
aF96774.1935483871
aF76923.07692307692
aF62500.0
aF40000.0
aF0.0
aF125000.0
asS'Bacteria.Proteobacteria.Gammaproteobacteria.Oceanospirillales.Oceanospirillaceae.Oleispira'
p417
(lp418
F0.0
aF0.0
aF0.0
aF102564.10256410256
aF31250.0
aF0.0
aF0.0
aF0.0
asS'Archaea.Crenarchaeota.Miscellaneous_Crenarchaeotic_Group'
p419
(lp420
F0.0
aF0.0
aF0.0
aF25641.02564102564
aF0.0
aF0.0
aF0.0
aF0.0
asS'Bacteria.Proteobacteria.Alphaproteobacteria.Rhodobacterales.Rhodobacteraceae.Palleronia'
p421
(lp422
F0.0
aF0.0
aF32258.064516129034
aF0.0
aF0.0
aF40000.0
aF22727.272727272728
aF125000.0
asS'Bacteria.Proteobacteria.Alphaproteobacteria.Rhizobiales.Xanthobacteraceae.Pseudolabrys'
p423
(lp424
F76923.07692307692
aF60606.06060606061
aF32258.064516129034
aF102564.10256410256
aF218750.0
aF240000.0
aF22727.272727272728
aF62500.0
asS'Bacteria.Deferribacteres.Deferribacteres.Deferribacterales.Unassigned'
p425
(lp426
F38461.53846153846
aF181818.18181818182
aF322580.64516129036
aF487179.4871794872
aF0.0
aF0.0
aF0.0
aF125000.0
asS'Bacteria.Firmicutes.Erysipelotrichi.Erysipelotrichales.Erysipelotrichaceae'
p427
(lp428
F0.0
aF0.0
aF0.0
aF0.0
aF0.0
aF40000.0
aF0.0
aF0.0
asS'Bacteria.Proteobacteria.Betaproteobacteria.Hydrogenophilales.Hydrogenophilaceae.Thiobacillus'
p429
(lp430
F76923.07692307692
aF121212.12121212122
aF0.0
aF128205.1282051282
aF0.0
aF0.0
aF22727.272727272728
aF250000.0
asS'Bacteria.Proteobacteria.Gammaproteobacteria.Legionellales.Coxiellaceae.Rickettsiella'
p431
(lp432
F38461.53846153846
aF0.0
aF0.0
aF0.0
aF0.0
aF0.0
aF0.0
aF0.0
asS'Bacteria.Proteobacteria.Deltaproteobacteria.Desulfovibrionales.Desulfovibrionaceae'
p433
(lp434
F38461.53846153846
aF30303.030303030304
aF0.0
aF76923.07692307692
aF31250.0
aF120000.0
aF22727.272727272728
aF0.0
asS'Bacteria.Actinobacteria.Actinobacteria.Actinomycetales.Thermomonosporaceae.Thermomonospora'
p435
(lp436
F0.0
aF0.0
aF0.0
aF0.0
aF0.0
aF0.0
aF0.0
aF31250.0
asS'Bacteria.Proteobacteria.Gammaproteobacteria.Chromatiales.Halothiobacillaceae.Halothiobacillus.kellyi'
p437
(lp438
F76923.07692307692
aF30303.030303030304
aF96774.1935483871
aF25641.02564102564
aF0.0
aF0.0
aF0.0
aF0.0
asS'Bacteria.Proteobacteria.Gammaproteobacteria.Chromatiales.Halothiobacillaceae'
p439
(lp440
F38461.53846153846
aF0.0
aF0.0
aF0.0
aF0.0
aF0.0
aF22727.272727272728
aF0.0
asS'Bacteria.Proteobacteria.Gammaproteobacteria.Oceanospirillales.Halomonadaceae'
p441
(lp442
F38461.53846153846
aF0.0
aF0.0
aF0.0
aF0.0
aF0.0
aF0.0
aF31250.0
asS'Bacteria.Proteobacteria.Gammaproteobacteria.Thiotrichales.Piscirickettsiaceae.Methylophaga'
p443
(lp444
F38461.53846153846
aF30303.030303030304
aF0.0
aF25641.02564102564
aF0.0
aF0.0
aF45454.545454545456
aF125000.0
asS'Bacteria.Proteobacteria.Deltaproteobacteria.Desulfurellales'
p445
(lp446
F38461.53846153846
aF30303.030303030304
aF32258.064516129034
aF0.0
aF0.0
aF0.0
aF22727.272727272728
aF62500.0
asS'Bacteria.Proteobacteria.Gammaproteobacteria.Chromatiales.Granulosicoccaceae.Granulosicoccus'
p447
(lp448
F76923.07692307692
aF60606.06060606061
aF32258.064516129034
aF51282.05128205128
aF0.0
aF0.0
aF22727.272727272728
aF0.0
asS'Bacteria.Proteobacteria.Deltaproteobacteria.Myxococcales.Haliangiaceae'
p449
(lp450
F76923.07692307692
aF181818.18181818182
aF161290.32258064518
aF25641.02564102564
aF0.0
aF40000.0
aF68181.81818181818
aF62500.0
asS'Bacteria.Proteobacteria.Gammaproteobacteria.Methylococcales.Methylococcaceae.Methylococcus'
p451
(lp452
F76923.07692307692
aF0.0
aF0.0
aF51282.05128205128
aF0.0
aF0.0
aF0.0
aF0.0
asS'Bacteria.Proteobacteria.Alphaproteobacteria.Rhodospirillales.Rhodospirillaceae.Oceanibaculum'
p453
(lp454
F76923.07692307692
aF0.0
aF0.0
aF0.0
aF0.0
aF0.0
aF22727.272727272728
aF0.0
asS'Bacteria.Planctomycetes.Planctomycetacia.Planctomycetales.Planctomycetaceae.Singulisphaera'
p455
(lp456
F0.0
aF0.0
aF0.0
aF0.0
aF0.0
aF80000.0
aF0.0
aF0.0
asS'Bacteria.Firmicutes.Bacilli.Bacillales.Thermoactinomycetaceae.Shimazuella'
p457
(lp458
F0.0
aF0.0
aF0.0
aF25641.02564102564
aF0.0
aF0.0
aF0.0
aF0.0
asS'Bacteria.Nitrospirae.Nitrospira'
p459
(lp460
F0.0
aF0.0
aF0.0
aF0.0
aF0.0
aF40000.0
aF0.0
aF0.0
asS'Bacteria.Acidobacteria.Acidobacteria.Acidobacteriales.Acidobacteriaceae.Acidobacterium'
p461
(lp462
F0.0
aF0.0
aF0.0
aF0.0
aF0.0
aF0.0
aF22727.272727272728
aF0.0
asS'Bacteria.Firmicutes.Clostridia.Clostridiales.Peptostreptococcaceae'
p463
(lp464
F0.0
aF0.0
aF32258.064516129034
aF25641.02564102564
aF0.0
aF40000.0
aF22727.272727272728
aF31250.0
asS'Bacteria.Spirochaetes.Spirochaetes.Spirochaetales'
p465
(lp466
F0.0
aF0.0
aF64516.12903225807
aF76923.07692307692
aF0.0
aF80000.0
aF0.0
aF0.0
asS'Bacteria.Verrucomicrobia'
p467
(lp468
F0.0
aF0.0
aF0.0
aF51282.05128205128
aF0.0
aF0.0
aF0.0
aF0.0
asS'Bacteria.Proteobacteria.Alphaproteobacteria.Rhodospirillales.Rhodospirillaceae.Inquilinus'
p469
(lp470
F0.0
aF0.0
aF0.0
aF0.0
aF0.0
aF40000.0
aF0.0
aF0.0
asS'Bacteria.Proteobacteria.Alphaproteobacteria.Rhodospirillales.Acetobacteraceae.Stella'
p471
(lp472
F0.0
aF0.0
aF0.0
aF0.0
aF0.0
aF0.0
aF0.0
aF31250.0
asS'Bacteria.Verrucomicrobia.Verrucomicrobiae.Verrucomicrobiales.Verrucomicrobiaceae.Haloferula.sargassicola'
p473
(lp474
F0.0
aF30303.030303030304
aF0.0
aF0.0
aF0.0
aF0.0
aF0.0
aF0.0
asS'Bacteria.Proteobacteria.Deltaproteobacteria.Myxococcales.Phaselicystidaceae'
p475
(lp476
F38461.53846153846
aF30303.030303030304
aF64516.12903225807
aF25641.02564102564
aF62500.0
aF0.0
aF22727.272727272728
aF0.0
asS'Bacteria.Proteobacteria.Betaproteobacteria.Burkholderiales.Unassigned'
p477
(lp478
F0.0
aF0.0
aF0.0
aF0.0
aF0.0
aF40000.0
aF0.0
aF0.0
asS'Bacteria.Proteobacteria.Betaproteobacteria.Burkholderiales.Comamonadaceae.Methylibium'
p479
(lp480
F0.0
aF0.0
aF0.0
aF0.0
aF31250.0
aF0.0
aF0.0
aF0.0
asS'Bacteria.Actinobacteria.Actinobacteria.Actinomycetales.Pseudonocardiaceae.Prauserella.halophila'
p481
(lp482
F0.0
aF0.0
aF0.0
aF25641.02564102564
aF0.0
aF0.0
aF0.0
aF0.0
asS'Bacteria.Proteobacteria.Gammaproteobacteria.Oceanospirillales.Litoricolaceae'
p483
(lp484
F38461.53846153846
aF30303.030303030304
aF0.0
aF0.0
aF0.0
aF0.0
aF0.0
aF0.0
asS'Bacteria.Proteobacteria.Gammaproteobacteria.Xanthomonadales.Sinobacteraceae.Steroidobacter'
p485
(lp486
F38461.53846153846
aF30303.030303030304
aF0.0
aF0.0
aF93750.0
aF200000.0
aF0.0
aF0.0
asS'Bacteria.Cyanobacteria.Cyanobacteria.SubsectionIII.Unassigned.Symploca'
p487
(lp488
F0.0
aF0.0
aF0.0
aF0.0
aF62500.0
aF0.0
aF0.0
aF0.0
asS'Bacteria.Verrucomicrobia.Verrucomicrobiae.Verrucomicrobiales.Subdivision3'
p489
(lp490
F38461.53846153846
aF121212.12121212122
aF64516.12903225807
aF153846.15384615384
aF218750.0
aF520000.0
aF90909.09090909091
aF281250.0
asS'Bacteria.Proteobacteria.Alphaproteobacteria.Caulobacterales.Hyphomonadaceae.Hyphomonas'
p491
(lp492
F384615.3846153846
aF30303.030303030304
aF129032.25806451614
aF25641.02564102564
aF0.0
aF0.0
aF0.0
aF31250.0
asS'Bacteria.Proteobacteria.Deltaproteobacteria.Syntrophobacterales.Syntrophobacteraceae'
p493
(lp494
F38461.53846153846
aF30303.030303030304
aF161290.32258064518
aF76923.07692307692
aF0.0
aF0.0
aF0.0
aF0.0
asS'Bacteria.OP10'
p495
(lp496
F38461.53846153846
aF0.0
aF0.0
aF25641.02564102564
aF31250.0
aF80000.0
aF22727.272727272728
aF31250.0
asS'Bacteria.Cyanobacteria.Cyanobacteria.SubsectionIII.Unassigned.Lyngbya'
p497
(lp498
F0.0
aF0.0
aF32258.064516129034
aF0.0
aF0.0
aF0.0
aF0.0
aF0.0
asS'Bacteria.Chloroflexi.Anaerolineae.Anaerolineales.Anaerolinaceae.Leptolinea'
p499
(lp500
F0.0
aF0.0
aF0.0
aF0.0
aF31250.0
aF0.0
aF0.0
aF0.0
asS'Bacteria.Planctomycetes.Planctomycetacia.Planctomycetales.Planctomycetaceae.Isosphaera'
p501
(lp502
F0.0
aF0.0
aF0.0
aF0.0
aF0.0
aF80000.0
aF0.0
aF31250.0
asS'Bacteria.Verrucomicrobia.Verrucomicrobiae.Verrucomicrobiales.Verrucomicrobiaceae'
p503
(lp504
F115384.61538461538
aF60606.06060606061
aF96774.1935483871
aF76923.07692307692
aF31250.0
aF0.0
aF22727.272727272728
aF31250.0
asS'Bacteria.Actinobacteria.Actinobacteria.Actinomycetales.Unassigned'
p505
(lp506
F0.0
aF0.0
aF161290.32258064518
aF25641.02564102564
aF31250.0
aF40000.0
aF0.0
aF31250.0
asS'Bacteria.Proteobacteria'
p507
(lp508
F0.0
aF0.0
aF32258.064516129034
aF0.0
aF0.0
aF0.0
aF0.0
aF0.0
asS'Bacteria.Proteobacteria.Gammaproteobacteria.Legionellales.Coxiellaceae'
p509
(lp510
F0.0
aF90909.09090909091
aF96774.1935483871
aF25641.02564102564
aF0.0
aF0.0
aF22727.272727272728
aF0.0
asS'Bacteria.Bacteroidetes.Sphingobacteria.Sphingobacteriales.Chitinophagaceae'
p511
(lp512
F38461.53846153846
aF60606.06060606061
aF32258.064516129034
aF0.0
aF0.0
aF0.0
aF0.0
aF0.0
asS'Bacteria.Proteobacteria.Alphaproteobacteria.Rhodobacterales.Rhodobacteraceae.Maritimibacter'
p513
(lp514
F38461.53846153846
aF0.0
aF0.0
aF0.0
aF0.0
aF0.0
aF0.0
aF0.0
asS'Bacteria.Proteobacteria.Gammaproteobacteria.Xanthomonadales.Xanthomonadaceae.Stenotrophomonas'
p515
(lp516
F38461.53846153846
aF0.0
aF0.0
aF0.0
aF0.0
aF0.0
aF0.0
aF0.0
asS'Bacteria.Proteobacteria.Alphaproteobacteria.Rhizobiales.Rhodobiaceae'
p517
(lp518
F500000.0
aF212121.21212121213
aF193548.3870967742
aF51282.05128205128
aF156250.0
aF200000.0
aF204545.45454545456
aF343750.0
asS'Bacteria.Proteobacteria.Alphaproteobacteria.Rhodobacterales.Rhodobacteraceae.Tranquillimonas.alkanivorans'
p519
(lp520
F0.0
aF0.0
aF0.0
aF0.0
aF31250.0
aF0.0
aF0.0
aF0.0
asS'Bacteria.Verrucomicrobia.Verrucomicrobiae.Verrucomicrobiales.Verrucomicrobiaceae.Roseibacillus'
p521
(lp522
F0.0
aF0.0
aF0.0
aF51282.05128205128
aF0.0
aF40000.0
aF0.0
aF0.0
asS'Bacteria.Actinobacteria.Actinobacteria.Actinomycetales.Acidothermaceae.Acidothermus'
p523
(lp524
F0.0
aF0.0
aF0.0
aF0.0
aF0.0
aF0.0
aF0.0
aF31250.0
asS'Bacteria.Proteobacteria.Alphaproteobacteria.Rhizobiales.Rhizobiaceae'
p525
(lp526
F0.0
aF0.0
aF0.0
aF25641.02564102564
aF0.0
aF0.0
aF0.0
aF0.0
asS'Bacteria.Proteobacteria.Alphaproteobacteria.Rhodobacterales'
p527
(lp528
F615384.6153846154
aF303030.30303030304
aF387096.7741935484
aF333333.3333333333
aF343750.0
aF160000.0
aF227272.7272727273
aF218750.0
asS'Bacteria.Firmicutes.Bacilli.Bacillales.Paenibacillaceae.Paenibacillus'
p529
(lp530
F0.0
aF0.0
aF0.0
aF0.0
aF31250.0
aF160000.0
aF0.0
aF0.0
asS'Bacteria.Bacteroidetes.Sphingobacteria.Sphingobacteriales.Rhodothermaceae.Salisaeta'
p531
(lp532
F38461.53846153846
aF0.0
aF96774.1935483871
aF25641.02564102564
aF0.0
aF0.0
aF68181.81818181818
aF62500.0
asS'Bacteria.Bacteroidetes.Sphingobacteria.Sphingobacteriales.Flammeovirgaceae.Marinoscillum'
p533
(lp534
F0.0
aF60606.06060606061
aF32258.064516129034
aF0.0
aF0.0
aF0.0
aF113636.36363636365
aF62500.0
asS'Bacteria.Proteobacteria.Alphaproteobacteria.Sneathiellales.Sneathiellaceae.Sneathiella'
p535
(lp536
F0.0
aF30303.030303030304
aF0.0
aF76923.07692307692
aF0.0
aF0.0
aF0.0
aF31250.0
asS'Bacteria.Proteobacteria.Deltaproteobacteria.Syntrophobacterales.Syntrophobacteraceae.Desulfoacinum'
p537
(lp538
F0.0
aF0.0
aF0.0
aF0.0
aF31250.0
aF0.0
aF0.0
aF0.0
asS'Bacteria.Proteobacteria.Deltaproteobacteria.Myxococcales.Haliangiaceae.Haliangium.tepidum'
p539
(lp540
F0.0
aF0.0
aF32258.064516129034
aF0.0
aF0.0
aF0.0
aF0.0
aF0.0
asS'Bacteria.Proteobacteria.Betaproteobacteria.Nitrosomonadales'
p541
(lp542
F115384.61538461538
aF363636.36363636365
aF193548.3870967742
aF102564.10256410256
aF250000.0
aF240000.0
aF113636.36363636365
aF375000.0
asS'Bacteria.Proteobacteria.Alphaproteobacteria.Rhizobiales.Methylobacteriaceae'
p543
(lp544
F0.0
aF0.0
aF0.0
aF0.0
aF31250.0
aF40000.0
aF0.0
aF0.0
asS'Bacteria.Firmicutes.Bacilli.Bacillales.Paenibacillaceae.Paenibacillus.lentimorbus'
p545
(lp546
F0.0
aF0.0
aF0.0
aF0.0
aF0.0
aF40000.0
aF0.0
aF0.0
asS'Bacteria.Actinobacteria.Actinobacteria.Actinomycetales.Corynebacteriaceae'
p547
(lp548
F0.0
aF0.0
aF0.0
aF0.0
aF31250.0
aF0.0
aF0.0
aF0.0
asS'Bacteria.Proteobacteria.Alphaproteobacteria.Rhizobiales.Rhodobiaceae.Afifella'
p549
(lp550
F38461.53846153846
aF0.0
aF32258.064516129034
aF0.0
aF0.0
aF0.0
aF0.0
aF0.0
asS'Bacteria.Proteobacteria.Alphaproteobacteria.Rhizobiales.Brucellaceae'
p551
(lp552
F0.0
aF0.0
aF64516.12903225807
aF0.0
aF0.0
aF0.0
aF0.0
aF0.0
asS'Bacteria.Proteobacteria.Gammaproteobacteria.Chromatiales.Halothiobacillaceae.Thioalkalibacter'
p553
(lp554
F0.0
aF0.0
aF0.0
aF0.0
aF0.0
aF0.0
aF22727.272727272728
aF0.0
asS'Bacteria.Proteobacteria.Gammaproteobacteria.Pasteurellales.Pasteurellaceae.Haemophilus'
p555
(lp556
F0.0
aF0.0
aF0.0
aF0.0
aF0.0
aF40000.0
aF0.0
aF0.0
asS'Bacteria.Proteobacteria.Deltaproteobacteria.Myxococcales.Polyangiaceae.Chondromyces'
p557
(lp558
F0.0
aF0.0
aF0.0
aF0.0
aF0.0
aF0.0
aF0.0
aF31250.0
asS'Bacteria.Proteobacteria.Alphaproteobacteria.Rhizobiales.Hyphomicrobiaceae.Prosthecomicrobium'
p559
(lp560
F269230.76923076925
aF151515.15151515152
aF161290.32258064518
aF102564.10256410256
aF125000.0
aF360000.0
aF45454.545454545456
aF62500.0
asS'Bacteria.Proteobacteria.Alphaproteobacteria.Caulobacterales.Hyphomonadaceae.Hyphomonas.Henriciella'
p561
(lp562
F153846.15384615384
aF30303.030303030304
aF32258.064516129034
aF0.0
aF0.0
aF0.0
aF0.0
aF31250.0
asS'Bacteria.Verrucomicrobia.Opitutae.Puniceicoccales.Puniceicoccaceae.Pelagicoccus'
p563
(lp564
F0.0
aF30303.030303030304
aF0.0
aF0.0
aF31250.0
aF0.0
aF0.0
aF0.0
asS'Bacteria.Proteobacteria.Gammaproteobacteria.Oceanospirillales.Litoricolaceae.Litoricola'
p565
(lp566
F38461.53846153846
aF30303.030303030304
aF0.0
aF0.0
aF0.0
aF0.0
aF0.0
aF0.0
asS'Bacteria.Proteobacteria.Alphaproteobacteria.Rhizobiales.Aurantimonadaceae.Fulvimarina.pelagi'
p567
(lp568
F0.0
aF30303.030303030304
aF0.0
aF0.0
aF0.0
aF0.0
aF0.0
aF0.0
asS'Bacteria.Proteobacteria.Alphaproteobacteria.Rhodospirillales.Unassigned'
p569
(lp570
F0.0
aF60606.06060606061
aF0.0
aF51282.05128205128
aF31250.0
aF0.0
aF0.0
aF0.0
asS'Bacteria.Proteobacteria.Gammaproteobacteria.Vibrionales.Vibrionaceae.Vibrio.harveyi'
p571
(lp572
F0.0
aF0.0
aF0.0
aF0.0
aF0.0
aF0.0
aF0.0
aF31250.0
asS'Bacteria.Proteobacteria.Deltaproteobacteria.Desulfovibrionales.Desulfohalobiaceae'
p573
(lp574
F0.0
aF0.0
aF0.0
aF0.0
aF0.0
aF0.0
aF0.0
aF31250.0
asS'Bacteria.Proteobacteria.Gammaproteobacteria.Xanthomonadales.Xanthomonadaceae'
p575
(lp576
F115384.61538461538
aF121212.12121212122
aF32258.064516129034
aF25641.02564102564
aF0.0
aF40000.0
aF0.0
aF31250.0
asS'Bacteria.Proteobacteria.Deltaproteobacteria.SAR324'
p577
(lp578
F153846.15384615384
aF181818.18181818182
aF64516.12903225807
aF179487.1794871795
aF93750.0
aF40000.0
aF340909.09090909094
aF406250.0
asS'Bacteria.Bacteroidetes.Sphingobacteria.Sphingobacteriales.Chitinophagaceae.Gracilimonas'
p579
(lp580
F192307.6923076923
aF30303.030303030304
aF32258.064516129034
aF179487.1794871795
aF0.0
aF0.0
aF45454.545454545456
aF31250.0
asS'Bacteria.Chlamydiae.Chlamydiae.Chlamydiales.Parachlamydiaceae.Neochlamydia'
p581
(lp582
F0.0
aF30303.030303030304
aF32258.064516129034
aF0.0
aF0.0
aF0.0
aF0.0
aF0.0
asS'Bacteria.Proteobacteria.Gammaproteobacteria.Unassigned.Unassigned'
p583
(lp584
F115384.61538461538
aF90909.09090909091
aF0.0
aF76923.07692307692
aF93750.0
aF80000.0
aF159090.9090909091
aF31250.0
asS'Bacteria.Bacteroidetes.Flavobacteria.Flavobacteriales.Flavobacteriaceae.Lutibacter'
p585
(lp586
F0.0
aF30303.030303030304
aF0.0
aF0.0
aF0.0
aF0.0
aF0.0
aF0.0
asS'Bacteria.Verrucomicrobia.Opitutae.Opitutales.Opitutaceae.Alterococcus'
p587
(lp588
F0.0
aF30303.030303030304
aF0.0
aF25641.02564102564
aF31250.0
aF0.0
aF0.0
aF0.0
asS'Bacteria.Actinobacteria.Actinobacteria.Solirubrobacterales.Conexibacteraceae.Conexibacter'
p589
(lp590
F0.0
aF60606.06060606061
aF64516.12903225807
aF102564.10256410256
aF31250.0
aF80000.0
aF0.0
aF31250.0
asS'Bacteria.Proteobacteria.Deltaproteobacteria.Desulfovibrionales.Desulfovibrionaceae.Desulfovibrio.africanus'
p591
(lp592
F0.0
aF0.0
aF0.0
aF0.0
aF0.0
aF0.0
aF22727.272727272728
aF0.0
asS'Bacteria.Proteobacteria.Betaproteobacteria.Methylophilales'
p593
(lp594
F76923.07692307692
aF0.0
aF0.0
aF0.0
aF0.0
aF0.0
aF0.0
aF0.0
asS'Bacteria.Proteobacteria.Gammaproteobacteria.Oceanospirillales.Saccharospirillaceae.Saccharospirillum'
p595
(lp596
F0.0
aF0.0
aF0.0
aF0.0
aF0.0
aF0.0
aF22727.272727272728
aF0.0
asS'Bacteria.Deinococcus_Thermus'
p597
(lp598
F0.0
aF0.0
aF0.0
aF0.0
aF0.0
aF0.0
aF22727.272727272728
aF0.0
asS'Bacteria.Cyanobacteria.Cyanobacteria.SubsectionIV.Unassigned'
p599
(lp600
F0.0
aF0.0
aF64516.12903225807
aF0.0
aF125000.0
aF40000.0
aF22727.272727272728
aF0.0
asS'Bacteria.Proteobacteria.Alphaproteobacteria.Rhizobiales.Methylobacteriaceae.Meganema'
p601
(lp602
F0.0
aF0.0
aF0.0
aF0.0
aF31250.0
aF0.0
aF0.0
aF0.0
asS'Bacteria.Proteobacteria.Alphaproteobacteria.Rhodobacterales.Rhodobacteraceae'
p603
(lp604
F615384.6153846154
aF303030.30303030304
aF387096.7741935484
aF333333.3333333333
aF343750.0
aF160000.0
aF227272.7272727273
aF218750.0
asS'Bacteria.Proteobacteria.Gammaproteobacteria.Alteromonadales.Alteromonadaceae.Unassigned.Melitea'
p605
(lp606
F76923.07692307692
aF0.0
aF0.0
aF0.0
aF0.0
aF40000.0
aF0.0
aF0.0
asS'Bacteria.Proteobacteria.Gammaproteobacteria.Chromatiales.Chromatiaceae.Thiohalocapsa'
p607
(lp608
F76923.07692307692
aF0.0
aF32258.064516129034
aF25641.02564102564
aF0.0
aF0.0
aF0.0
aF0.0
asS'Bacteria.Proteobacteria.Alphaproteobacteria'
p609
(lp610
F346153.8461538461
aF242424.24242424243
aF225806.45161290324
aF307692.3076923077
aF156250.0
aF400000.0
aF136363.63636363635
aF93750.0
asS'Bacteria.Proteobacteria.Alphaproteobacteria.Rhodospirillales.Rhodospirillaceae'
p611
(lp612
F884615.3846153846
aF272727.2727272727
aF580645.1612903227
aF487179.4871794872
aF343750.0
aF320000.0
aF363636.36363636365
aF218750.0
asS'Bacteria.Proteobacteria.Alphaproteobacteria.Rhizobiales.Hyphomicrobiaceae.Hyphomicrobium'
p613
(lp614
F38461.53846153846
aF0.0
aF0.0
aF0.0
aF31250.0
aF0.0
aF0.0
aF93750.0
asS'Bacteria.Proteobacteria.Alphaproteobacteria.Rhizobiales.Rhodobiaceae.Anderseniella'
p615
(lp616
F38461.53846153846
aF0.0
aF32258.064516129034
aF0.0
aF0.0
aF0.0
aF0.0
aF0.0
asS'Bacteria.Firmicutes.Bacilli.Bacillales.Bacillaceae'
p617
(lp618
F192307.6923076923
aF424242.42424242425
aF32258.064516129034
aF102564.10256410256
aF750000.0
aF560000.0
aF295454.54545454547
aF187500.0
asS'Bacteria.Proteobacteria.Gammaproteobacteria.Chromatiales.Halothiobacillaceae.Halothiobacillus'
p619
(lp620
F38461.53846153846
aF0.0
aF0.0
aF0.0
aF0.0
aF0.0
aF0.0
aF0.0
asS'Bacteria.Proteobacteria.Betaproteobacteria'
p621
(lp622
F269230.76923076925
aF90909.09090909091
aF64516.12903225807
aF76923.07692307692
aF93750.0
aF0.0
aF0.0
aF0.0
asS'Bacteria.Proteobacteria.Epsilonproteobacteria.Campylobacterales.Helicobacteraceae'
p623
(lp624
F0.0
aF0.0
aF32258.064516129034
aF51282.05128205128
aF0.0
aF0.0
aF22727.272727272728
aF0.0
asS'Bacteria.Proteobacteria.Alphaproteobacteria.Rhodobacterales.Rhodobacteraceae.Nereida.ignava'
p625
(lp626
F0.0
aF0.0
aF0.0
aF25641.02564102564
aF0.0
aF0.0
aF0.0
aF0.0
asS'Bacteria.Proteobacteria.Deltaproteobacteria.Unassigned.Syntrophorhabdaceae'
p627
(lp628
F38461.53846153846
aF30303.030303030304
aF0.0
aF0.0
aF0.0
aF0.0
aF0.0
aF0.0
asS'Bacteria.Proteobacteria.Alphaproteobacteria.Caulobacterales.Caulobacteraceae'
p629
(lp630
F192307.6923076923
aF0.0
aF32258.064516129034
aF25641.02564102564
aF0.0
aF40000.0
aF0.0
aF0.0
asS'Bacteria.Proteobacteria.Alphaproteobacteria.Rhizobiales.Xanthobacteraceae.Labrys'
p631
(lp632
F0.0
aF0.0
aF0.0
aF0.0
aF0.0
aF0.0
aF22727.272727272728
aF0.0
asS'Bacteria.Proteobacteria.Gammaproteobacteria.Pasteurellales.Pasteurellaceae.Nicoletella'
p633
(lp634
F0.0
aF0.0
aF0.0
aF0.0
aF0.0
aF40000.0
aF0.0
aF0.0
asS'Bacteria.Gemmatimonadetes.Gemmatimonadetes.Gemmatimonadales'
p635
(lp636
F423076.92307692306
aF151515.15151515152
aF161290.32258064518
aF256410.2564102564
aF687500.0
aF840000.0
aF22727.272727272728
aF125000.0
asS'Bacteria.Deinococcus_Thermus.Deinococci.Deinococcales.Deinococcaceae'
p637
(lp638
F0.0
aF0.0
aF64516.12903225807
aF0.0
aF0.0
aF40000.0
aF0.0
aF0.0
asS'Bacteria.Bacteroidetes.Sphingobacteria.Sphingobacteriales.Chitinophagaceae.Balneola'
p639
(lp640
F0.0
aF0.0
aF0.0
aF0.0
aF0.0
aF0.0
aF22727.272727272728
aF0.0
asS'Bacteria.Verrucomicrobia.Opitutae'
p641
(lp642
F76923.07692307692
aF30303.030303030304
aF64516.12903225807
aF153846.15384615384
aF156250.0
aF40000.0
aF0.0
aF31250.0
asS'Bacteria.Firmicutes'
p643
(lp644
F0.0
aF0.0
aF0.0
aF0.0
aF0.0
aF0.0
aF22727.272727272728
aF0.0
asS'Bacteria.Proteobacteria.Gammaproteobacteria.Vibrionales'
p645
(lp646
F38461.53846153846
aF30303.030303030304
aF0.0
aF25641.02564102564
aF0.0
aF80000.0
aF0.0
aF0.0
asS'Bacteria.Proteobacteria.Deltaproteobacteria.Bdellovibrionales'
p647
(lp648
F38461.53846153846
aF0.0
aF96774.1935483871
aF76923.07692307692
aF62500.0
aF0.0
aF181818.18181818182
aF187500.0
asS'Bacteria.Proteobacteria.Deltaproteobacteria.Desulfobacterales.Nitrospinaceae.Nitrospina'
p649
(lp650
F76923.07692307692
aF0.0
aF64516.12903225807
aF76923.07692307692
aF0.0
aF0.0
aF22727.272727272728
aF31250.0
asS'Bacteria.Proteobacteria.Gammaproteobacteria.Chromatiales.Chromatiaceae'
p651
(lp652
F0.0
aF90909.09090909091
aF129032.25806451614
aF25641.02564102564
aF0.0
aF0.0
aF45454.545454545456
aF62500.0
asS'Bacteria.Fibrobacteres.Fibrobacteria.Fibrobacterales'
p653
(lp654
F0.0
aF0.0
aF0.0
aF25641.02564102564
aF0.0
aF80000.0
aF22727.272727272728
aF0.0
asS'Bacteria.Planctomycetes.Planctomycetacia.Planctomycetales.Planctomycetaceae.Pirellula'
p655
(lp656
F115384.61538461538
aF30303.030303030304
aF96774.1935483871
aF51282.05128205128
aF93750.0
aF280000.0
aF22727.272727272728
aF0.0
asS'Bacteria.Chloroflexi.Ktedonobacteria.Ktedonobacterales.Ktedonobacteraceae'
p657
(lp658
F0.0
aF0.0
aF0.0
aF0.0
aF31250.0
aF40000.0
aF0.0
aF0.0
asS'Bacteria.Firmicutes.Bacilli.Bacillales.Bacillaceae.Halobacillus'
p659
(lp660
F38461.53846153846
aF30303.030303030304
aF0.0
aF51282.05128205128
aF31250.0
aF40000.0
aF0.0
aF0.0
asS'Organelle.Chloroplast'
p661
(lp662
F0.0
aF0.0
aF0.0
aF0.0
aF0.0
aF40000.0
aF0.0
aF0.0
asS'Bacteria.Bacteroidetes.Sphingobacteria.Sphingobacteriales.Flammeovirgaceae.Marinoscillum.pacificum'
p663
(lp664
F0.0
aF0.0
aF0.0
aF0.0
aF0.0
aF0.0
aF22727.272727272728
aF0.0
asS'Bacteria.Spirochaetes.Spirochaetes.Spirochaetales.Leptospiraceae.Leptonema'
p665
(lp666
F0.0
aF0.0
aF0.0
aF76923.07692307692
aF0.0
aF40000.0
aF0.0
aF0.0
asS'Bacteria.Verrucomicrobia.Opitutae.Puniceicoccales.Puniceicoccaceae.Pelagicoccus.mobilis'
p667
(lp668
F0.0
aF0.0
aF0.0
aF0.0
aF0.0
aF40000.0
aF0.0
aF0.0
asS'Bacteria.Proteobacteria.Gammaproteobacteria.Alteromonadales.Alteromonadaceae.Alteromonas'
p669
(lp670
F0.0
aF0.0
aF0.0
aF25641.02564102564
aF0.0
aF0.0
aF0.0
aF0.0
asS'Bacteria.Proteobacteria.Gammaproteobacteria.Chromatiales.Ectothiorhodospiraceae.Ectothiorhodospira'
p671
(lp672
F38461.53846153846
aF0.0
aF0.0
aF0.0
aF0.0
aF0.0
aF0.0
aF31250.0
asS'Bacteria.Nitrospirae.Nitrospira.Nitrospirales.Nitrospiraceae'
p673
(lp674
F115384.61538461538
aF90909.09090909091
aF96774.1935483871
aF0.0
aF0.0
aF0.0
aF0.0
aF31250.0
asS'Bacteria.Proteobacteria.Gammaproteobacteria.Unassigned.Unassigned.Thiohalophilus'
p675
(lp676
F0.0
aF60606.06060606061
aF0.0
aF0.0
aF0.0
aF0.0
aF90909.09090909091
aF31250.0
asS'Bacteria.Proteobacteria.Alphaproteobacteria.Caulobacterales'
p677
(lp678
F192307.6923076923
aF30303.030303030304
aF32258.064516129034
aF25641.02564102564
aF125000.0
aF80000.0
aF0.0
aF0.0
asS'Bacteria.Proteobacteria.Alphaproteobacteria.Rhodospirillales.Rhodospirillaceae.Defluviicoccus'
p679
(lp680
F230769.23076923075
aF272727.2727272727
aF354838.7096774194
aF282051.28205128206
aF406250.0
aF160000.0
aF90909.09090909091
aF343750.0
asS'Bacteria.Firmicutes.Clostridia.Clostridiales.Peptococcaceae.Desulfosporosinus'
p681
(lp682
F0.0
aF30303.030303030304
aF0.0
aF0.0
aF0.0
aF0.0
aF0.0
aF0.0
asS'Bacteria.Proteobacteria.Alphaproteobacteria.Rhodospirillales.Rhodospirillaceae.Novispirillum'
p683
(lp684
F0.0
aF0.0
aF0.0
aF0.0
aF0.0
aF0.0
aF22727.272727272728
aF0.0
asS'Bacteria.Proteobacteria.Gammaproteobacteria.Alteromonadales.Alteromonadaceae.SAR92'
p685
(lp686
F0.0
aF30303.030303030304
aF0.0
aF0.0
aF0.0
aF0.0
aF22727.272727272728
aF31250.0
asS'Bacteria.Proteobacteria.Deltaproteobacteria.Desulfobacterales.Desulfobulbaceae.Desulfobulbus'
p687
(lp688
F192307.6923076923
aF90909.09090909091
aF96774.1935483871
aF76923.07692307692
aF0.0
aF0.0
aF68181.81818181818
aF31250.0
asS'Bacteria.Firmicutes.Clostridia.Clostridiales.Lachnospiraceae'
p689
(lp690
F38461.53846153846
aF0.0
aF32258.064516129034
aF51282.05128205128
aF0.0
aF80000.0
aF22727.272727272728
aF0.0
asS'Bacteria.Proteobacteria.Gammaproteobacteria.Alteromonadales'
p691
(lp692
F769230.7692307692
aF212121.21212121213
aF387096.7741935484
aF384615.3846153846
aF62500.0
aF320000.0
aF68181.81818181818
aF62500.0
asS'Bacteria.Proteobacteria.Deltaproteobacteria.Desulfuromonadales.Desulfuromonadaceae.Malonomas'
p693
(lp694
F38461.53846153846
aF0.0
aF0.0
aF0.0
aF0.0
aF0.0
aF0.0
aF0.0
asS'Bacteria.Actinobacteria.Actinobacteria.Nitriliruptorales.Nitriliruptoraceae.Nitriliruptor'
p695
(lp696
F38461.53846153846
aF121212.12121212122
aF96774.1935483871
aF0.0
aF31250.0
aF920000.0
aF68181.81818181818
aF0.0
asS'Bacteria.Proteobacteria.Gammaproteobacteria.Xanthomonadales.Sinobacteraceae'
p697
(lp698
F2307692.3076923075
aF1757575.7575757576
aF1774193.548387097
aF923076.923076923
aF1000000.0
aF1120000.0
aF636363.6363636364
aF812500.0
asS'Bacteria.Proteobacteria.Gammaproteobacteria.Pasteurellales'
p699
(lp700
F38461.53846153846
aF0.0
aF0.0
aF0.0
aF0.0
aF80000.0
aF0.0
aF31250.0
asS'Bacteria.Bacteroidetes.Sphingobacteria.Sphingobacteriales.Saprospiraceae.Lewinella.persicus'
p701
(lp702
F38461.53846153846
aF0.0
aF0.0
aF0.0
aF0.0
aF0.0
aF0.0
aF0.0
asS'Bacteria.Chloroflexi.Ktedonobacteria.Ktedonobacterales.Ktedonobacteraceae.Ktedonobacter'
p703
(lp704
F0.0
aF0.0
aF0.0
aF0.0
aF31250.0
aF40000.0
aF0.0
aF0.0
asS'Bacteria.Chloroflexi.SAR202'
p705
(lp706
F38461.53846153846
aF60606.06060606061
aF64516.12903225807
aF0.0
aF0.0
aF0.0
aF90909.09090909091
aF31250.0
asS'Bacteria.Proteobacteria.Betaproteobacteria.Rhodocyclales'
p707
(lp708
F38461.53846153846
aF0.0
aF0.0
aF102564.10256410256
aF0.0
aF80000.0
aF45454.545454545456
aF62500.0
asS'Bacteria.Firmicutes.Clostridia.Halanaerobiales'
p709
(lp710
F0.0
aF30303.030303030304
aF32258.064516129034
aF0.0
aF0.0
aF40000.0
aF22727.272727272728
aF0.0
asS'Bacteria.Proteobacteria.Alphaproteobacteria.Rhodospirillales.Rhodospirillaceae.Caenispirillum'
p711
(lp712
F0.0
aF0.0
aF0.0
aF0.0
aF0.0
aF0.0
aF0.0
aF31250.0
asS'Bacteria.Lentisphaerae.Lentisphaeria.Victivallales.Victivallaceae.Victivallis'
p713
(lp714
F0.0
aF0.0
aF32258.064516129034
aF0.0
aF0.0
aF0.0
aF0.0
aF0.0
asS'Bacteria.Chlamydiae'
p715
(lp716
F76923.07692307692
aF30303.030303030304
aF0.0
aF51282.05128205128
aF187500.0
aF120000.0
aF90909.09090909091
aF156250.0
asS'Bacteria.Proteobacteria.Deltaproteobacteria.Desulfobacterales.Desulfobacteraceae.Desulfosarcina'
p717
(lp718
F76923.07692307692
aF30303.030303030304
aF0.0
aF51282.05128205128
aF0.0
aF0.0
aF22727.272727272728
aF0.0
asS'Bacteria.Proteobacteria.Alphaproteobacteria.Rhizobiales.Phyllobacteriaceae.Mesorhizobium'
p719
(lp720
F384615.3846153846
aF30303.030303030304
aF96774.1935483871
aF128205.1282051282
aF281250.0
aF120000.0
aF68181.81818181818
aF125000.0
asS'Bacteria.Planctomycetes.Planctomycetacia.Planctomycetales.Planctomycetaceae.Gemmata'
p721
(lp722
F0.0
aF0.0
aF0.0
aF0.0
aF62500.0
aF40000.0
aF22727.272727272728
aF0.0
asS'Bacteria.Thermotogae.Thermotogae.Thermotogales.Thermotogaceae'
p723
(lp724
F0.0
aF0.0
aF0.0
aF25641.02564102564
aF0.0
aF0.0
aF0.0
aF0.0
asS'Bacteria.Proteobacteria.Deltaproteobacteria.Myxococcales.Polyangiaceae'
p725
(lp726
F115384.61538461538
aF60606.06060606061
aF225806.45161290324
aF0.0
aF281250.0
aF40000.0
aF90909.09090909091
aF31250.0
asS'Bacteria.Proteobacteria.Alphaproteobacteria.Rhizobiales.Methylocystaceae'
p727
(lp728
F153846.15384615384
aF90909.09090909091
aF129032.25806451614
aF25641.02564102564
aF125000.0
aF40000.0
aF136363.63636363635
aF218750.0
asS'Bacteria.Proteobacteria.Alphaproteobacteria.Rhizobiales.Aurantimonadaceae'
p729
(lp730
F0.0
aF0.0
aF0.0
aF0.0
aF0.0
aF0.0
aF0.0
aF31250.0
asS'Bacteria.Deferribacteres.Deferribacteres'
p731
(lp732
F76923.07692307692
aF60606.06060606061
aF64516.12903225807
aF25641.02564102564
aF31250.0
aF80000.0
aF0.0
aF31250.0
asS'Bacteria.Acidobacteria.Acidobacteria_Gp26.Unassigned.Unassigned.Gp26'
p733
(lp734
F38461.53846153846
aF30303.030303030304
aF32258.064516129034
aF25641.02564102564
aF31250.0
aF0.0
aF45454.545454545456
aF0.0
asS'Bacteria.Proteobacteria.Gammaproteobacteria.Oceanospirillales.Halomonadaceae.Zymobacter'
p735
(lp736
F0.0
aF0.0
aF32258.064516129034
aF0.0
aF0.0
aF0.0
aF0.0
aF0.0
asS'Bacteria.Proteobacteria.Deltaproteobacteria.Myxococcales.Myxococcaceae'
p737
(lp738
F0.0
aF0.0
aF32258.064516129034
aF0.0
aF0.0
aF0.0
aF0.0
aF0.0
asS'Bacteria.Proteobacteria.Betaproteobacteria.Neisseriales.Neisseriaceae.Silvimonas.iriomotensis'
p739
(lp740
F38461.53846153846
aF0.0
aF32258.064516129034
aF0.0
aF0.0
aF0.0
aF0.0
aF0.0
asS'Bacteria.Proteobacteria.Gammaproteobacteria.Alteromonadales.Moritellaceae'
p741
(lp742
F0.0
aF0.0
aF0.0
aF25641.02564102564
aF0.0
aF0.0
aF0.0
aF0.0
asS'Bacteria.Proteobacteria.Gammaproteobacteria.Acidithiobacillales.Acidithiobacillaceae'
p743
(lp744
F230769.23076923075
aF121212.12121212122
aF258064.51612903227
aF205128.20512820513
aF62500.0
aF80000.0
aF886363.6363636364
aF500000.0
asS'Bacteria.Chlamydiae.Chlamydiae.Chlamydiales.Chlamydiaceae'
p745
(lp746
F0.0
aF0.0
aF32258.064516129034
aF0.0
aF31250.0
aF0.0
aF0.0
aF31250.0
asS'Bacteria.Proteobacteria.Gammaproteobacteria.Oceanospirillales.Hahellaceae'
p747
(lp748
F38461.53846153846
aF0.0
aF0.0
aF0.0
aF0.0
aF0.0
aF0.0
aF0.0
asS'Bacteria.Firmicutes.Clostridia.Clostridiales.Gracilibacteraceae.Lutispora'
p749
(lp750
F0.0
aF30303.030303030304
aF0.0
aF0.0
aF0.0
aF0.0
aF0.0
aF0.0
asS'Bacteria.Firmicutes.Bacilli.Bacillales.Planococcaceae.Lysinibacillus'
p751
(lp752
F38461.53846153846
aF0.0
aF0.0
aF0.0
aF0.0
aF0.0
aF0.0
aF0.0
asS'Bacteria.Firmicutes.Clostridia.Clostridiales.Clostridiaceae.Clostridium.caminithermale'
p753
(lp754
F0.0
aF0.0
aF0.0
aF0.0
aF0.0
aF40000.0
aF0.0
aF0.0
asS'Bacteria.Bacteroidetes.Flavobacteria.Flavobacteriales.Flavobacteriaceae.Muricauda'
p755
(lp756
F0.0
aF90909.09090909091
aF96774.1935483871
aF51282.05128205128
aF0.0
aF0.0
aF0.0
aF0.0
asS'Bacteria.Proteobacteria.Alphaproteobacteria.Rhodobacterales.Rhodobacteraceae.Amaricoccus'
p757
(lp758
F0.0
aF30303.030303030304
aF32258.064516129034
aF25641.02564102564
aF0.0
aF0.0
aF0.0
aF0.0
asS'Bacteria.Firmicutes.Clostridia.Clostridiales.Clostridiaceae.Clostridiisalibacter'
p759
(lp760
F38461.53846153846
aF0.0
aF0.0
aF0.0
aF0.0
aF40000.0
aF0.0
aF0.0
asS'Bacteria.Proteobacteria.Deltaproteobacteria.Myxococcales.Nannocystaceae.Enhygromyxa'
p761
(lp762
F0.0
aF90909.09090909091
aF0.0
aF0.0
aF0.0
aF0.0
aF0.0
aF93750.0
asS'Bacteria.Proteobacteria.Gammaproteobacteria.Methylococcales.Crenotrichaceae'
p763
(lp764
F0.0
aF0.0
aF0.0
aF0.0
aF31250.0
aF0.0
aF0.0
aF0.0
asS'Bacteria.Gemmatimonadetes'
p765
(lp766
F1230769.2307692308
aF787878.7878787878
aF1096774.1935483871
aF692307.6923076923
aF875000.0
aF2120000.0
aF1000000.0
aF1843750.0
asS'Bacteria.Proteobacteria.Deltaproteobacteria'
p767
(lp768
F615384.6153846154
aF969696.9696969697
aF870967.7419354839
aF461538.4615384615
aF843750.0
aF640000.0
aF545454.5454545454
aF687500.0
asS'Bacteria.Firmicutes.Clostridia.Thermoanaerobacterales'
p769
(lp770
F0.0
aF30303.030303030304
aF0.0
aF0.0
aF0.0
aF40000.0
aF0.0
aF0.0
asS'Bacteria.Actinobacteria.Actinobacteria.Actinomycetales.Micromonosporaceae.Micromonospora'
p771
(lp772
F0.0
aF0.0
aF32258.064516129034
aF0.0
aF0.0
aF0.0
aF0.0
aF62500.0
asS'Bacteria.Proteobacteria.Deltaproteobacteria.Desulfuromonadales.Geobacteraceae.Geothermobacter.ehrlichii'
p773
(lp774
F0.0
aF30303.030303030304
aF0.0
aF25641.02564102564
aF0.0
aF0.0
aF0.0
aF62500.0
asS'Bacteria.Proteobacteria.Alphaproteobacteria.Rhizobiales.Bradyrhizobiaceae.Bradyrhizobium'
p775
(lp776
F0.0
aF0.0
aF0.0
aF25641.02564102564
aF125000.0
aF40000.0
aF0.0
aF62500.0
asS'Bacteria.Firmicutes.Clostridia.Clostridiales.Lachnospiraceae.Syntrophococcus'
p777
(lp778
F0.0
aF0.0
aF0.0
aF0.0
aF0.0
aF0.0
aF0.0
aF31250.0
asS'Bacteria.Firmicutes.Clostridia.Clostridiales.Syntrophomonadaceae'
p779
(lp780
F0.0
aF0.0
aF32258.064516129034
aF0.0
aF0.0
aF0.0
aF0.0
aF0.0
asS'Bacteria.Actinobacteria.Actinobacteria.Coriobacteriales'
p781
(lp782
F38461.53846153846
aF0.0
aF0.0
aF51282.05128205128
aF0.0
aF0.0
aF0.0
aF0.0
asS'Bacteria.Actinobacteria.Actinobacteria.Actinomycetales.Micrococcaceae.Yaniella'
p783
(lp784
F0.0
aF0.0
aF0.0
aF0.0
aF31250.0
aF0.0
aF0.0
aF0.0
asS'Bacteria.Proteobacteria.Deltaproteobacteria.Bdellovibrionales.Bdellovibrionaceae'
p785
(lp786
F0.0
aF0.0
aF64516.12903225807
aF25641.02564102564
aF31250.0
aF0.0
aF0.0
aF0.0
asS'Bacteria.Proteobacteria.Gammaproteobacteria.Pseudomonadales.Moraxellaceae.Perlucidibaca'
p787
(lp788
F38461.53846153846
aF0.0
aF0.0
aF0.0
aF0.0
aF0.0
aF0.0
aF0.0
asS'Bacteria.Actinobacteria.Actinobacteria.Acidimicrobiales.Iamiaceae.Iamia'
p789
(lp790
F38461.53846153846
aF151515.15151515152
aF96774.1935483871
aF25641.02564102564
aF0.0
aF80000.0
aF22727.272727272728
aF31250.0
asS'Bacteria.Proteobacteria.Betaproteobacteria.Nitrosomonadales.Nitrosomonadaceae'
p791
(lp792
F115384.61538461538
aF303030.30303030304
aF193548.3870967742
aF25641.02564102564
aF218750.0
aF240000.0
aF113636.36363636365
aF375000.0
asS'Bacteria.Chloroflexi.Caldilineae'
p793
(lp794
F461538.4615384615
aF818181.8181818182
aF645161.2903225807
aF435897.4358974359
aF843750.0
aF560000.0
aF954545.4545454546
aF625000.0
asS'Bacteria.Firmicutes.Clostridia.Clostridiales.Clostridiaceae'
p795
(lp796
F38461.53846153846
aF0.0
aF0.0
aF0.0
aF0.0
aF0.0
aF0.0
aF62500.0
asS'Bacteria.Proteobacteria.Gammaproteobacteria.Methylococcales.Methylococcaceae'
p797
(lp798
F115384.61538461538
aF0.0
aF0.0
aF51282.05128205128
aF0.0
aF40000.0
aF0.0
aF31250.0
asS'Bacteria.Firmicutes.Bacilli.Bacillales.Bacillaceae.Thalassobacillus'
p799
(lp800
F0.0
aF30303.030303030304
aF0.0
aF0.0
aF0.0
aF0.0
aF22727.272727272728
aF31250.0
asS'Bacteria.Proteobacteria.Deltaproteobacteria.Desulfurellales.Desulfurellaceae'
p801
(lp802
F38461.53846153846
aF30303.030303030304
aF32258.064516129034
aF0.0
aF0.0
aF0.0
aF22727.272727272728
aF62500.0
asS'Bacteria.Proteobacteria.Deltaproteobacteria.Desulfobacterales.Desulfobulbaceae.Desulfurivibrio'
p803
(lp804
F38461.53846153846
aF0.0
aF0.0
aF76923.07692307692
aF31250.0
aF0.0
aF22727.272727272728
aF31250.0
asS'Bacteria.Actinobacteria.Actinobacteria.Acidimicrobiales'
p805
(lp806
F500000.0
aF515151.51515151514
aF483870.9677419355
aF153846.15384615384
aF312500.0
aF200000.0
aF613636.3636363636
aF406250.0
asS'Bacteria.Proteobacteria.Gammaproteobacteria.Methylococcales.Methylococcaceae.Methylomicrobium'
p807
(lp808
F0.0
aF0.0
aF0.0
aF0.0
aF0.0
aF0.0
aF0.0
aF31250.0
asS'Bacteria.Actinobacteria.Actinobacteria.Actinomycetales.Micrococcaceae.Yaniella.halotolerans'
p809
(lp810
F0.0
aF0.0
aF0.0
aF0.0
aF0.0
aF40000.0
aF0.0
aF0.0
asS'Bacteria.Actinobacteria.Actinobacteria.Actinomycetales.Mycobacteriaceae'
p811
(lp812
F38461.53846153846
aF30303.030303030304
aF96774.1935483871
aF76923.07692307692
aF93750.0
aF160000.0
aF90909.09090909091
aF0.0
asS'Bacteria.Proteobacteria.Deltaproteobacteria.Bdellovibrionales.Bacteriovoraceae.Peredibacter'
p813
(lp814
F0.0
aF0.0
aF0.0
aF25641.02564102564
aF0.0
aF0.0
aF0.0
aF0.0
asS'Bacteria.Chloroflexi.Thermomicrobia.Sphaerobacterales.Sphaerobacteraceae.Sphaerobacter'
p815
(lp816
F38461.53846153846
aF30303.030303030304
aF0.0
aF0.0
aF0.0
aF0.0
aF45454.545454545456
aF0.0
asS'Bacteria.Proteobacteria.Betaproteobacteria.Nitrosomonadales.Nitrosomonadaceae.Nitrosospira'
p817
(lp818
F0.0
aF0.0
aF0.0
aF0.0
aF0.0
aF0.0
aF22727.272727272728
aF0.0
asS'Bacteria.Proteobacteria.Deltaproteobacteria.Desulfuromonadales.Geobacteraceae.Geobacter'
p819
(lp820
F38461.53846153846
aF30303.030303030304
aF0.0
aF0.0
aF125000.0
aF0.0
aF22727.272727272728
aF93750.0
asS'Bacteria.Proteobacteria.Alphaproteobacteria.Rhodobacterales.Rhodobacteraceae.Thioclava'
p821
(lp822
F0.0
aF30303.030303030304
aF0.0
aF0.0
aF0.0
aF0.0
aF0.0
aF31250.0
asS'Bacteria.Verrucomicrobia.Verrucomicrobiae.Verrucomicrobiales.Verrucomicrobiaceae.Haloferula.helveola'
p823
(lp824
F38461.53846153846
aF121212.12121212122
aF32258.064516129034
aF51282.05128205128
aF0.0
aF0.0
aF0.0
aF0.0
asS'Bacteria.Proteobacteria.Gammaproteobacteria.Pasteurellales.Pasteurellaceae.Mannheimia'
p825
(lp826
F38461.53846153846
aF0.0
aF0.0
aF0.0
aF0.0
aF0.0
aF0.0
aF0.0
asS'Bacteria.Firmicutes.Bacilli.Bacillales.Paenibacillaceae.Ammoniphilus'
p827
(lp828
F0.0
aF0.0
aF0.0
aF0.0
aF62500.0
aF40000.0
aF0.0
aF0.0
asS'Bacteria.Planctomycetes.Planctomycetacia.Planctomycetales.Planctomycetaceae.Planctomyces.maris'
p829
(lp830
F0.0
aF0.0
aF0.0
aF25641.02564102564
aF0.0
aF80000.0
aF0.0
aF0.0
asS'Bacteria.TA06'
p831
(lp832
F115384.61538461538
aF60606.06060606061
aF64516.12903225807
aF51282.05128205128
aF31250.0
aF0.0
aF22727.272727272728
aF0.0
asS'Bacteria.Proteobacteria.Gammaproteobacteria'
p833
(lp834
F1846153.846153846
aF1363636.3636363638
aF2000000.0
aF974358.9743589744
aF656250.0
aF1520000.0
aF1022727.2727272727
aF1281250.0
asS'Bacteria.Chlamydiae.Chlamydiae.Chlamydiales.Chlamydiaceae.Clavochlamydia.salmonicola'
p835
(lp836
F0.0
aF0.0
aF0.0
aF25641.02564102564
aF31250.0
aF0.0
aF0.0
aF0.0
asS'Bacteria.Actinobacteria.Actinobacteria'
p837
(lp838
F38461.53846153846
aF90909.09090909091
aF32258.064516129034
aF51282.05128205128
aF0.0
aF160000.0
aF0.0
aF0.0
asS'Bacteria.Proteobacteria.Alphaproteobacteria.Rhodobacterales.Rhodobacteraceae.Donghicola'
p839
(lp840
F38461.53846153846
aF0.0
aF0.0
aF0.0
aF0.0
aF0.0
aF0.0
aF0.0
asS'Bacteria.Proteobacteria.Gammaproteobacteria.Aeromonadales.Aeromonadaceae.Zobellella'
p841
(lp842
F38461.53846153846
aF0.0
aF129032.25806451614
aF0.0
aF0.0
aF0.0
aF0.0
aF0.0
asS'Bacteria.Actinobacteria.Actinobacteria.Actinomycetales.Cellulomonadaceae'
p843
(lp844
F76923.07692307692
aF30303.030303030304
aF32258.064516129034
aF0.0
aF62500.0
aF280000.0
aF0.0
aF0.0
asS'Bacteria.Proteobacteria.Gammaproteobacteria.Thiotrichales.Thiotrichaceae.Thioploca'
p845
(lp846
F0.0
aF30303.030303030304
aF32258.064516129034
aF0.0
aF31250.0
aF0.0
aF0.0
aF0.0
asS'Bacteria.Proteobacteria.Gammaproteobacteria.Oceanospirillales.Halomonadaceae.Kushneria'
p847
(lp848
F192307.6923076923
aF30303.030303030304
aF129032.25806451614
aF51282.05128205128
aF0.0
aF0.0
aF0.0
aF0.0
asS'Bacteria.Proteobacteria.Deltaproteobacteria.Myxococcales.Haliangiaceae.Haliangium.ochraceum'
p849
(lp850
F0.0
aF0.0
aF32258.064516129034
aF0.0
aF0.0
aF0.0
aF0.0
aF0.0
asS'Bacteria.Acidobacteria.Acidobacteria_Gp22.Unassigned'
p851
(lp852
F230769.23076923075
aF181818.18181818182
aF387096.7741935484
aF179487.1794871795
aF62500.0
aF80000.0
aF159090.9090909091
aF187500.0
asS'Bacteria.Bacteroidetes.Sphingobacteria.Sphingobacteriales.Cytophagaceae.Adhaeribacter'
p853
(lp854
F0.0
aF30303.030303030304
aF0.0
aF0.0
aF0.0
aF0.0
aF0.0
aF0.0
asS'Bacteria.Proteobacteria.Alphaproteobacteria.Rhodospirillales.Acetobacteraceae'
p855
(lp856
F0.0
aF0.0
aF0.0
aF0.0
aF0.0
aF0.0
aF0.0
aF31250.0
asS'Bacteria.Proteobacteria.Gammaproteobacteria.Enterobacteriales.Enterobacteriaceae.Citrobacter'
p857
(lp858
F38461.53846153846
aF0.0
aF0.0
aF0.0
aF0.0
aF0.0
aF22727.272727272728
aF62500.0
asS'Bacteria.Acidobacteria'
p859
(lp860
F115384.61538461538
aF121212.12121212122
aF64516.12903225807
aF102564.10256410256
aF31250.0
aF160000.0
aF68181.81818181818
aF687500.0
asS'Bacteria.Chloroflexi.Caldilineae.Caldilineales.Caldilineaceae.Caldilinea'
p861
(lp862
F115384.61538461538
aF0.0
aF64516.12903225807
aF25641.02564102564
aF125000.0
aF80000.0
aF90909.09090909091
aF31250.0
asS'Bacteria.Firmicutes.Clostridia.Clostridiales.Peptostreptococcaceae.Sporacetigenium'
p863
(lp864
F38461.53846153846
aF0.0
aF0.0
aF0.0
aF0.0
aF0.0
aF0.0
aF0.0
asS'Bacteria.Proteobacteria.Gammaproteobacteria.Chromatiales.Ectothiorhodospiraceae.Thiohalospira'
p865
(lp866
F0.0
aF0.0
aF64516.12903225807
aF0.0
aF0.0
aF0.0
aF0.0
aF0.0
asS'Bacteria.Proteobacteria.Betaproteobacteria.Hydrogenophilales.Hydrogenophilaceae'
p867
(lp868
F0.0
aF0.0
aF0.0
aF0.0
aF31250.0
aF0.0
aF0.0
aF0.0
asS'Bacteria.Acidobacteria.Acidobacteria_Gp26.Unassigned'
p869
(lp870
F38461.53846153846
aF30303.030303030304
aF32258.064516129034
aF25641.02564102564
aF31250.0
aF0.0
aF45454.545454545456
aF0.0
asS'Bacteria.Proteobacteria.Alphaproteobacteria.Rhizobiales.Hyphomicrobiaceae.Filomicrobium'
p871
(lp872
F115384.61538461538
aF60606.06060606061
aF64516.12903225807
aF25641.02564102564
aF62500.0
aF80000.0
aF22727.272727272728
aF62500.0
asS'Archaea.Crenarchaeota.Group_C3'
p873
(lp874
F0.0
aF0.0
aF0.0
aF25641.02564102564
aF0.0
aF0.0
aF0.0
aF0.0
asS'Bacteria.Proteobacteria.Gammaproteobacteria.Oceanospirillales.Oceanospirillaceae'
p875
(lp876
F0.0
aF0.0
aF0.0
aF0.0
aF31250.0
aF0.0
aF0.0
aF0.0
asS'Bacteria.TM6'
p877
(lp878
F0.0
aF30303.030303030304
aF64516.12903225807
aF0.0
aF0.0
aF0.0
aF22727.272727272728
aF0.0
asS'Bacteria.TM7'
p879
(lp880
F38461.53846153846
aF0.0
aF64516.12903225807
aF0.0
aF156250.0
aF80000.0
aF68181.81818181818
aF93750.0
asS'Bacteria.Actinobacteria.Actinobacteria.Actinomycetales.Nocardioidaceae.Marmoricola'
p881
(lp882
F115384.61538461538
aF0.0
aF0.0
aF0.0
aF62500.0
aF120000.0
aF22727.272727272728
aF0.0
asS'Bacteria.Proteobacteria.Alphaproteobacteria.Rhodobacterales.Rhodobacteraceae.Lutimaribacter'
p883
(lp884
F0.0
aF0.0
aF0.0
aF0.0
aF31250.0
aF0.0
aF0.0
aF0.0
asS'Bacteria.Proteobacteria.Deltaproteobacteria.Desulfobacterales'
p885
(lp886
F0.0
aF30303.030303030304
aF0.0
aF25641.02564102564
aF0.0
aF0.0
aF0.0
aF0.0
asS'Bacteria.Proteobacteria.Gammaproteobacteria.Thiotrichales.Thiotrichaceae.Leucothrix'
p887
(lp888
F0.0
aF0.0
aF0.0
aF25641.02564102564
aF0.0
aF0.0
aF0.0
aF0.0
asS'Bacteria.Bacteroidetes.Flavobacteria.Flavobacteriales.Cryomorphaceae.Fluviicola'
p889
(lp890
F0.0
aF0.0
aF0.0
aF0.0
aF31250.0
aF0.0
aF0.0
aF0.0
asS'Bacteria.Proteobacteria.Deltaproteobacteria.Myxococcales.Nannocystaceae.Plesiocystis.pacifica'
p891
(lp892
F0.0
aF0.0
aF32258.064516129034
aF0.0
aF0.0
aF0.0
aF0.0
aF0.0
asS'Bacteria.Proteobacteria.Alphaproteobacteria.Sphingomonadales.Sphingomonadaceae.Novosphingobium.naphthalenivor'
p893
(lp894
F0.0
aF0.0
aF0.0
aF0.0
aF0.0
aF80000.0
aF0.0
aF0.0
asS'Bacteria.Bacteroidetes.Flavobacteria.Flavobacteriales.Flavobacteriaceae.Sediminibacter'
p895
(lp896
F0.0
aF30303.030303030304
aF32258.064516129034
aF0.0
aF0.0
aF0.0
aF0.0
aF0.0
asS'Bacteria.Proteobacteria.Gammaproteobacteria.Chromatiales'
p897
(lp898
F423076.92307692306
aF60606.06060606061
aF64516.12903225807
aF102564.10256410256
aF156250.0
aF120000.0
aF181818.18181818182
aF312500.0
asS'Bacteria.Proteobacteria.Gammaproteobacteria.Enterobacteriales.Enterobacteriaceae'
p899
(lp900
F153846.15384615384
aF181818.18181818182
aF96774.1935483871
aF0.0
aF125000.0
aF80000.0
aF0.0
aF125000.0
asS'Bacteria.Proteobacteria.Alphaproteobacteria.Caulobacterales.Hyphomonadaceae.Hellea'
p901
(lp902
F0.0
aF0.0
aF0.0
aF0.0
aF31250.0
aF0.0
aF0.0
aF0.0
asS'Bacteria.Verrucomicrobia.Spartobacteria'
p903
(lp904
F38461.53846153846
aF0.0
aF0.0
aF0.0
aF62500.0
aF0.0
aF22727.272727272728
aF31250.0
asS'Bacteria.Spirochaetes.Spirochaetes.Spirochaetales.Leptospiraceae'
p905
(lp906
F0.0
aF0.0
aF32258.064516129034
aF76923.07692307692
aF0.0
aF40000.0
aF0.0
aF0.0
asS'Bacteria.Thermotogae.Thermotogae.Thermotogales'
p907
(lp908
F0.0
aF0.0
aF0.0
aF25641.02564102564
aF0.0
aF0.0
aF0.0
aF0.0
asS'Bacteria.Firmicutes.Clostridia.Clostridiales.Ruminococcaceae.Fastidiosipila'
p909
(lp910
F0.0
aF0.0
aF0.0
aF25641.02564102564
aF0.0
aF0.0
aF45454.545454545456
aF0.0
asS'Bacteria.Actinobacteria.Actinobacteria.Solirubrobacterales'
p911
(lp912
F500000.0
aF181818.18181818182
aF290322.58064516133
aF25641.02564102564
aF93750.0
aF320000.0
aF90909.09090909091
aF187500.0
asS'Bacteria.Firmicutes.Clostridia.Clostridiales.Clostridiaceae.Geosporobacter'
p913
(lp914
F0.0
aF30303.030303030304
aF0.0
aF0.0
aF0.0
aF0.0
aF22727.272727272728
aF0.0
asS'Bacteria.Bacteroidetes.Sphingobacteria.Sphingobacteriales.Cyclobacteriaceae.Echinicola'
p915
(lp916
F0.0
aF30303.030303030304
aF0.0
aF25641.02564102564
aF0.0
aF0.0
aF0.0
aF0.0
asS'Bacteria.Proteobacteria.Alphaproteobacteria.Rhodobacterales.Rhodobacteraceae.Rhodovulum'
p917
(lp918
F38461.53846153846
aF0.0
aF32258.064516129034
aF0.0
aF0.0
aF0.0
aF0.0
aF0.0
asS'Bacteria.Acidobacteria.Acidobacteria.Acidobacteriales'
p919
(lp920
F1076923.076923077
aF1545454.5454545454
aF1032258.0645161291
aF615384.6153846154
aF1687500.0
aF1760000.0
aF977272.7272727273
aF1812500.0
asS'Bacteria.Cyanobacteria.Cyanobacteria.SubsectionIV.Unassigned.Brasilonema'
p921
(lp922
F0.0
aF0.0
aF64516.12903225807
aF0.0
aF0.0
aF0.0
aF0.0
aF0.0
asS'Bacteria.Proteobacteria.Deltaproteobacteria.Desulfuromonadales.Desulfuromonadaceae'
p923
(lp924
F0.0
aF30303.030303030304
aF32258.064516129034
aF0.0
aF31250.0
aF0.0
aF90909.09090909091
aF156250.0
asS'Bacteria.Fibrobacteres'
p925
(lp926
F0.0
aF0.0
aF0.0
aF25641.02564102564
aF0.0
aF80000.0
aF22727.272727272728
aF0.0
asS'Bacteria.Actinobacteria.Actinobacteria.Actinomycetales.Thermomonosporaceae'
p927
(lp928
F0.0
aF0.0
aF0.0
aF0.0
aF0.0
aF0.0
aF0.0
aF31250.0
asS'Bacteria.Planctomycetes.Planctomycetacia.Planctomycetales.Planctomycetaceae.Schlesneria'
p929
(lp930
F0.0
aF0.0
aF0.0
aF0.0
aF0.0
aF0.0
aF0.0
aF62500.0
asS'Bacteria.Verrucomicrobia.Verrucomicrobiae.Verrucomicrobiales.Verrucomicrobiaceae.Verrucomicrobium'
p931
(lp932
F38461.53846153846
aF0.0
aF32258.064516129034
aF25641.02564102564
aF0.0
aF0.0
aF0.0
aF0.0
asS'Bacteria.Proteobacteria.Alphaproteobacteria.Rhodobacterales.Rhodobacteraceae.Stappia'
p933
(lp934
F38461.53846153846
aF0.0
aF0.0
aF0.0
aF0.0
aF0.0
aF0.0
aF0.0
asS'Bacteria.Proteobacteria.Gammaproteobacteria.Alteromonadales.Alteromonadaceae'
p935
(lp936
F576923.0769230769
aF181818.18181818182
aF322580.64516129036
aF333333.3333333333
aF62500.0
aF320000.0
aF68181.81818181818
aF62500.0
asS'Bacteria.Proteobacteria.Deltaproteobacteria.Syntrophobacterales.Syntrophaceae.Desulfobacca'
p937
(lp938
F0.0
aF0.0
aF0.0
aF0.0
aF0.0
aF0.0
aF0.0
aF31250.0
asS'Bacteria.Proteobacteria.Alphaproteobacteria.Rhizobiales.Hyphomicrobiaceae.Rhodomicrobium'
p939
(lp940
F0.0
aF0.0
aF0.0
aF51282.05128205128
aF62500.0
aF0.0
aF0.0
aF0.0
asS'Bacteria.Proteobacteria.Gammaproteobacteria.Chromatiales.Ectothiorhodospiraceae.Alkalilimnicola'
p941
(lp942
F0.0
aF0.0
aF32258.064516129034
aF0.0
aF0.0
aF0.0
aF0.0
aF0.0
asS'Bacteria.Cyanobacteria.Cyanobacteria.SubsectionIII.Unassigned.Leptolyngbya'
p943
(lp944
F0.0
aF0.0
aF32258.064516129034
aF0.0
aF312500.0
aF0.0
aF0.0
aF0.0
asS'Bacteria.Chloroflexi.Anaerolineae.Anaerolineales.Anaerolinaceae'
p945
(lp946
F576923.0769230769
aF606060.6060606061
aF741935.4838709678
aF615384.6153846154
aF781250.0
aF1680000.0
aF568181.8181818182
aF781250.0
asS'Bacteria.Proteobacteria.Alphaproteobacteria.Sphingomonadales.Sphingomonadaceae'
p947
(lp948
F38461.53846153846
aF0.0
aF0.0
aF0.0
aF31250.0
aF0.0
aF0.0
aF31250.0
asS'Bacteria.Actinobacteria.Actinobacteria.Actinomycetales.Kineosporiaceae.Quadrisphaera'
p949
(lp950
F0.0
aF0.0
aF0.0
aF51282.05128205128
aF0.0
aF0.0
aF0.0
aF0.0
asS'Bacteria.Chloroflexi.Ktedonobacteria.Ktedonobacterales'
p951
(lp952
F0.0
aF0.0
aF0.0
aF0.0
aF31250.0
aF40000.0
aF0.0
aF0.0
asS'Bacteria.Actinobacteria.Actinobacteria.Actinomycetales.Intrasporangiaceae.Tetrasphaera'
p953
(lp954
F0.0
aF30303.030303030304
aF0.0
aF0.0
aF0.0
aF40000.0
aF0.0
aF0.0
asS'Bacteria.Proteobacteria.Gammaproteobacteria.Alteromonadales.Alteromonadaceae.Unassigned.Haliea'
p955
(lp956
F0.0
aF0.0
aF64516.12903225807
aF102564.10256410256
aF62500.0
aF40000.0
aF22727.272727272728
aF0.0
asS'Bacteria.Actinobacteria.Actinobacteria.Actinomycetales.Acidothermaceae'
p957
(lp958
F0.0
aF0.0
aF0.0
aF0.0
aF0.0
aF0.0
aF0.0
aF31250.0
asS'Bacteria.Actinobacteria.Actinobacteria.Actinomycetales.Corynebacteriaceae.Corynebacterium.aquilae'
p959
(lp960
F0.0
aF0.0
aF0.0
aF0.0
aF31250.0
aF0.0
aF0.0
aF0.0
asS'Bacteria.Proteobacteria.Betaproteobacteria.Nitrosomonadales.Nitrosomonadaceae.Nitrosomonas'
p961
(lp962
F0.0
aF0.0
aF0.0
aF25641.02564102564
aF0.0
aF0.0
aF0.0
aF0.0
asS'Bacteria.Actinobacteria.Actinobacteria.Actinomycetales.Corynebacteriaceae.Corynebacterium'
p963
(lp964
F0.0
aF0.0
aF0.0
aF0.0
aF31250.0
aF0.0
aF0.0
aF0.0
asS'Bacteria.Firmicutes.Bacilli.Bacillales.Alicyclobacillaceae.Alicyclobacillus'
p965
(lp966
F76923.07692307692
aF0.0
aF0.0
aF25641.02564102564
aF31250.0
aF200000.0
aF22727.272727272728
aF31250.0
asS'Bacteria.Proteobacteria.Gammaproteobacteria.Chromatiales.Granulosicoccaceae'
p967
(lp968
F76923.07692307692
aF60606.06060606061
aF32258.064516129034
aF51282.05128205128
aF0.0
aF0.0
aF22727.272727272728
aF0.0
asS'Bacteria.Proteobacteria.Deltaproteobacteria.Desulfobacterales.Desulfobacteraceae.Desulforegula'
p969
(lp970
F38461.53846153846
aF0.0
aF0.0
aF0.0
aF0.0
aF0.0
aF0.0
aF0.0
asS'Bacteria.Proteobacteria.Alphaproteobacteria.Rhodospirillales.Rhodospirillaceae.Magnetospirillum'
p971
(lp972
F0.0
aF0.0
aF0.0
aF25641.02564102564
aF0.0
aF0.0
aF0.0
aF0.0
asS'Bacteria.Acidobacteria.Holophagae.Holophagales.Holophagaceae.Geothrix'
p973
(lp974
F0.0
aF0.0
aF0.0
aF25641.02564102564
aF0.0
aF0.0
aF0.0
aF0.0
asS'Bacteria.Bacteroidetes.Bacteroidia.Bacteroidales'
p975
(lp976
F0.0
aF0.0
aF0.0
aF25641.02564102564
aF31250.0
aF0.0
aF0.0
aF62500.0
asS'Bacteria.Firmicutes.Clostridia.Halanaerobiales.Halanaerobiaceae.Halocella'
p977
(lp978
F0.0
aF30303.030303030304
aF0.0
aF0.0
aF0.0
aF0.0
aF0.0
aF0.0
asS'Bacteria.Actinobacteria.Actinobacteria.Actinomycetales.Microbacteriaceae.Agromyces'
p979
(lp980
F0.0
aF0.0
aF0.0
aF0.0
aF31250.0
aF0.0
aF0.0
aF0.0
asS'Bacteria.Proteobacteria.Alphaproteobacteria.Rhizobiales.Hyphomicrobiaceae.Pedomicrobium'
p981
(lp982
F0.0
aF60606.06060606061
aF0.0
aF0.0
aF31250.0
aF0.0
aF0.0
aF31250.0
asS'Bacteria.Proteobacteria.Gammaproteobacteria.Chromatiales.Ectothiorhodospiraceae.Arhodomonas'
p983
(lp984
F0.0
aF0.0
aF32258.064516129034
aF0.0
aF0.0
aF0.0
aF0.0
aF0.0
asS'Bacteria.Proteobacteria.Deltaproteobacteria.Desulfarculales'
p985
(lp986
F76923.07692307692
aF30303.030303030304
aF32258.064516129034
aF128205.1282051282
aF31250.0
aF40000.0
aF22727.272727272728
aF0.0
asS'Bacteria.Chlamydiae.Chlamydiae.Chlamydiales.Waddliaceae.Waddlia'
p987
(lp988
F0.0
aF30303.030303030304
aF0.0
aF0.0
aF0.0
aF0.0
aF22727.272727272728
aF0.0
asS'Bacteria.Proteobacteria.Deltaproteobacteria.Myxococcales.Cystobacteraceae'
p989
(lp990
F0.0
aF0.0
aF0.0
aF0.0
aF0.0
aF0.0
aF22727.272727272728
aF0.0
asS'Bacteria.Proteobacteria.Alphaproteobacteria.Rhodobacterales.Rhodobacteraceae.Tranquillimonas'
p991
(lp992
F0.0
aF0.0
aF0.0
aF0.0
aF31250.0
aF0.0
aF0.0
aF0.0
asS'Bacteria.BRC1'
p993
(lp994
F423076.92307692306
aF151515.15151515152
aF32258.064516129034
aF51282.05128205128
aF125000.0
aF200000.0
aF22727.272727272728
aF93750.0
asS'Bacteria.Planctomycetes'
p995
(lp996
F0.0
aF30303.030303030304
aF0.0
aF0.0
aF0.0
aF40000.0
aF22727.272727272728
aF31250.0
asS'Bacteria.Chloroflexi.Dehalococcoidetes.Unassigned.Unassigned.Dehalogenimonas'
p997
(lp998
F38461.53846153846
aF0.0
aF0.0
aF0.0
aF31250.0
aF40000.0
aF45454.545454545456
aF31250.0
asS'Bacteria.Bacteroidetes.Bacteroidia.Bacteroidales.Marinilabiaceae'
p999
(lp1000
F0.0
aF0.0
aF0.0
aF0.0
aF31250.0
aF0.0
aF0.0
aF0.0
asS'Bacteria.Chloroflexi.Chloroflexi.Chloroflexales.Chloroflexaceae'
p1001
(lp1002
F0.0
aF0.0
aF0.0
aF0.0
aF62500.0
aF0.0
aF0.0
aF0.0
asS'Bacteria.Proteobacteria.Gammaproteobacteria.Pasteurellales.Pasteurellaceae'
p1003
(lp1004
F38461.53846153846
aF0.0
aF0.0
aF0.0
aF0.0
aF80000.0
aF0.0
aF31250.0
asS'Bacteria.Chloroflexi.Thermomicrobia.Sphaerobacterales.Sphaerobacteraceae'
p1005
(lp1006
F38461.53846153846
aF30303.030303030304
aF0.0
aF0.0
aF0.0
aF0.0
aF45454.545454545456
aF0.0
asS'Bacteria.Proteobacteria.Gammaproteobacteria.Oceanospirillales.Saccharospirillaceae.Saccharospirillum.salsuginis'
p1007
(lp1008
F0.0
aF0.0
aF0.0
aF0.0
aF0.0
aF0.0
aF22727.272727272728
aF0.0
asS'Bacteria.Firmicutes.Clostridia.Clostridiales.Peptococcaceae'
p1009
(lp1010
F0.0
aF30303.030303030304
aF0.0
aF0.0
aF31250.0
aF0.0
aF0.0
aF0.0
asS'Bacteria.Proteobacteria.Alphaproteobacteria.Rhodobacterales.Rhodobacteraceae.Tropicimonas'
p1011
(lp1012
F115384.61538461538
aF60606.06060606061
aF32258.064516129034
aF25641.02564102564
aF31250.0
aF0.0
aF0.0
aF62500.0
asS'Bacteria.Bacteroidetes.Flavobacteria.Flavobacteriales.Cryomorphaceae.Owenweeksia'
p1013
(lp1014
F0.0
aF30303.030303030304
aF0.0
aF0.0
aF0.0
aF0.0
aF0.0
aF0.0
asS'Bacteria.Proteobacteria.Gammaproteobacteria.Oceanospirillales.Alcanivoracaceae.Kangiella'
p1015
(lp1016
F0.0
aF30303.030303030304
aF32258.064516129034
aF25641.02564102564
aF0.0
aF0.0
aF0.0
aF0.0
asS'Bacteria.Proteobacteria.Gammaproteobacteria.Oceanospirillales.Oceanospirillaceae.Marinobacterium'
p1017
(lp1018
F0.0
aF0.0
aF32258.064516129034
aF0.0
aF0.0
aF0.0
aF0.0
aF0.0
asS'Bacteria.Firmicutes.Bacilli.Lactobacillales.Enterococcaceae'
p1019
(lp1020
F38461.53846153846
aF0.0
aF0.0
aF0.0
aF0.0
aF0.0
aF0.0
aF0.0
asS'Bacteria.Proteobacteria.Gammaproteobacteria.Chromatiales.Ectothiorhodospiraceae.Halorhodospira'
p1021
(lp1022
F0.0
aF30303.030303030304
aF0.0
aF0.0
aF0.0
aF0.0
aF0.0
aF0.0
asS'Bacteria.Acidobacteria.Holophagae.Acanthopleuribacterales'
p1023
(lp1024
F0.0
aF60606.06060606061
aF64516.12903225807
aF0.0
aF0.0
aF0.0
aF0.0
aF0.0
asS'Bacteria.Proteobacteria.Alphaproteobacteria.Caulobacterales.Caulobacteraceae.Phenylobacterium'
p1025
(lp1026
F38461.53846153846
aF0.0
aF0.0
aF0.0
aF0.0
aF0.0
aF0.0
aF0.0
asS'Organelle.Chloroplast.Chlorophyta'
p1027
(lp1028
F0.0
aF0.0
aF0.0
aF0.0
aF31250.0
aF0.0
aF0.0
aF0.0
asS'Bacteria.Firmicutes.Bacilli.Bacillales.Bacillaceae.Pontibacillus'
p1029
(lp1030
F0.0
aF0.0
aF0.0
aF0.0
aF0.0
aF80000.0
aF0.0
aF0.0
asS'Bacteria.Acidobacteria.Acidobacteria_Gp26'
p1031
(lp1032
F38461.53846153846
aF30303.030303030304
aF32258.064516129034
aF25641.02564102564
aF31250.0
aF0.0
aF45454.545454545456
aF0.0
asS'Bacteria.Verrucomicrobia.Verrucomicrobiae.Verrucomicrobiales.Verrucomicrobiaceae.Acidimethylosilex'
p1033
(lp1034
F0.0
aF0.0
aF0.0
aF0.0
aF0.0
aF40000.0
aF0.0
aF0.0
asS'Bacteria.Actinobacteria.Actinobacteria.Acidimicrobiales.Acidimicrobiaceae.Ilumatobacter'
p1035
(lp1036
F38461.53846153846
aF0.0
aF0.0
aF0.0
aF0.0
aF0.0
aF0.0
aF0.0
asS'Bacteria.Proteobacteria.Epsilonproteobacteria.Campylobacterales'
p1037
(lp1038
F0.0
aF0.0
aF32258.064516129034
aF51282.05128205128
aF0.0
aF0.0
aF22727.272727272728
aF0.0
asS'Bacteria.Proteobacteria.Gammaproteobacteria.Oceanospirillales.Halomonadaceae.Halomonas'
p1039
(lp1040
F38461.53846153846
aF0.0
aF64516.12903225807
aF76923.07692307692
aF62500.0
aF0.0
aF45454.545454545456
aF31250.0
asS'Bacteria.Proteobacteria.Deltaproteobacteria.Unassigned.Syntrophorhabdaceae.Syntrophorhabdus'
p1041
(lp1042
F38461.53846153846
aF30303.030303030304
aF0.0
aF0.0
aF0.0
aF0.0
aF0.0
aF0.0
asS'Bacteria.Proteobacteria.Gammaproteobacteria.Pseudomonadales.Pseudomonadaceae.Pseudomonas.andersonii'
p1043
(lp1044
F38461.53846153846
aF0.0
aF0.0
aF0.0
aF0.0
aF0.0
aF0.0
aF0.0
asS'Bacteria.Proteobacteria.Alphaproteobacteria.Parvularculales.Parvularculaceae.Parvularcula'
p1045
(lp1046
F38461.53846153846
aF60606.06060606061
aF129032.25806451614
aF25641.02564102564
aF0.0
aF480000.0
aF90909.09090909091
aF31250.0
asS'Bacteria.Proteobacteria.Deltaproteobacteria.Myxococcales.Haliangiaceae.Haliangium'
p1047
(lp1048
F76923.07692307692
aF181818.18181818182
aF161290.32258064518
aF25641.02564102564
aF0.0
aF40000.0
aF68181.81818181818
aF62500.0
asS'Bacteria.Acidobacteria.Acidobacteria_Gp22'
p1049
(lp1050
F230769.23076923075
aF181818.18181818182
aF387096.7741935484
aF179487.1794871795
aF62500.0
aF80000.0
aF159090.9090909091
aF187500.0
asS'Bacteria.Proteobacteria.Deltaproteobacteria.Desulfobacterales.Nitrospinaceae.Nitrospinaceae.Entotheonella'
p1051
(lp1052
F0.0
aF60606.06060606061
aF0.0
aF25641.02564102564
aF31250.0
aF40000.0
aF0.0
aF62500.0
asS'Bacteria.Proteobacteria.Gammaproteobacteria.Chromatiales.Ectothiorhodospiraceae.Thioalkalivibrio'
p1053
(lp1054
F153846.15384615384
aF90909.09090909091
aF64516.12903225807
aF76923.07692307692
aF62500.0
aF0.0
aF22727.272727272728
aF62500.0
asS'Bacteria.Firmicutes.Bacilli'
p1055
(lp1056
F346153.8461538461
aF454545.4545454546
aF32258.064516129034
aF153846.15384615384
aF906250.0
aF1000000.0
aF318181.8181818182
aF218750.0
asS'Bacteria.Lentisphaerae'
p1057
(lp1058
F76923.07692307692
aF30303.030303030304
aF32258.064516129034
aF153846.15384615384
aF31250.0
aF40000.0
aF45454.545454545456
aF0.0
asS'Bacteria.Proteobacteria.Deltaproteobacteria.Desulfuromonadales'
p1059
(lp1060
F38461.53846153846
aF30303.030303030304
aF32258.064516129034
aF102564.10256410256
aF31250.0
aF0.0
aF22727.272727272728
aF0.0
asS'Bacteria.Actinobacteria.Actinobacteria.Actinomycetales.Micrococcaceae.Zhihengliuella'
p1061
(lp1062
F0.0
aF0.0
aF0.0
aF0.0
aF31250.0
aF0.0
aF0.0
aF0.0
asS'Bacteria.Firmicutes.Bacilli.Bacillales.Paenibacillaceae.Paenibacillus.macerans'
p1063
(lp1064
F0.0
aF0.0
aF0.0
aF0.0
aF31250.0
aF0.0
aF0.0
aF0.0
asS'Bacteria.Firmicutes.Bacilli.Lactobacillales.Aerococcaceae'
p1065
(lp1066
F0.0
aF0.0
aF0.0
aF25641.02564102564
aF0.0
aF0.0
aF0.0
aF0.0
asS'Bacteria.Verrucomicrobia.Opitutae.Puniceicoccales.Puniceicoccaceae.Coraliomargarita'
p1067
(lp1068
F38461.53846153846
aF0.0
aF161290.32258064518
aF25641.02564102564
aF0.0
aF0.0
aF0.0
aF0.0
asS'Bacteria.Proteobacteria.Gammaproteobacteria.Unassigned.Unassigned.Thiobios'
p1069
(lp1070
F38461.53846153846
aF30303.030303030304
aF0.0
aF0.0
aF0.0
aF0.0
aF0.0
aF0.0
asS'Bacteria.Bacteroidetes.Sphingobacteria.Sphingobacteriales.Chitinophagaceae.Chitinophaga'
p1071
(lp1072
F0.0
aF0.0
aF0.0
aF0.0
aF31250.0
aF0.0
aF0.0
aF0.0
asS'Bacteria.Proteobacteria.Alphaproteobacteria.Sphingomonadales'
p1073
(lp1074
F230769.23076923075
aF0.0
aF129032.25806451614
aF25641.02564102564
aF156250.0
aF80000.0
aF0.0
aF125000.0
asS'Bacteria.Proteobacteria.Betaproteobacteria.Neisseriales.Neisseriaceae.Silvimonas'
p1075
(lp1076
F38461.53846153846
aF0.0
aF32258.064516129034
aF0.0
aF0.0
aF0.0
aF0.0
aF0.0
asS'Bacteria.Proteobacteria.Gammaproteobacteria.Alteromonadales.Idiomarinaceae.Pseudidiomarina'
p1077
(lp1078
F115384.61538461538
aF0.0
aF64516.12903225807
aF25641.02564102564
aF0.0
aF0.0
aF0.0
aF0.0
asS'Bacteria.Spirochaetes.Spirochaetes.Spirochaetales.Spirochaetaceae.Spirochaeta'
p1079
(lp1080
F0.0
aF60606.06060606061
aF0.0
aF25641.02564102564
aF0.0
aF40000.0
aF0.0
aF0.0
asS'Bacteria.Proteobacteria.Gammaproteobacteria.Chromatiales.Chromatiaceae.Marichromatium'
p1081
(lp1082
F0.0
aF30303.030303030304
aF0.0
aF25641.02564102564
aF0.0
aF0.0
aF0.0
aF0.0
asS'Bacteria.Proteobacteria.Alphaproteobacteria.Sphingomonadales.Sphingomonadaceae.Novosphingobium'
p1083
(lp1084
F115384.61538461538
aF0.0
aF0.0
aF0.0
aF0.0
aF40000.0
aF45454.545454545456
aF0.0
asS'Bacteria.Bacteroidetes.Bacteroidia.Bacteroidales.Prevotellaceae'
p1085
(lp1086
F0.0
aF0.0
aF0.0
aF25641.02564102564
aF0.0
aF0.0
aF0.0
aF62500.0
asS'Bacteria.Acidobacteria.Holophagae.Acanthopleuribacterales.Acanthopleuribacteraceae'
p1087
(lp1088
F0.0
aF60606.06060606061
aF64516.12903225807
aF0.0
aF0.0
aF0.0
aF0.0
aF0.0
asS'Bacteria.Proteobacteria.Deltaproteobacteria.Myxococcales'
p1089
(lp1090
F538461.5384615385
aF303030.30303030304
aF290322.58064516133
aF230769.23076923075
aF531250.0
aF480000.0
aF204545.45454545456
aF156250.0
asS'Bacteria.Proteobacteria.Alphaproteobacteria.Rhodobacterales.Rhodobacteraceae.Albidovulum'
p1091
(lp1092
F0.0
aF0.0
aF0.0
aF25641.02564102564
aF31250.0
aF0.0
aF0.0
aF0.0
asS'Bacteria.Proteobacteria.Alphaproteobacteria.Rickettsiales.SAR116'
p1093
(lp1094
F38461.53846153846
aF0.0
aF0.0
aF0.0
aF0.0
aF0.0
aF22727.272727272728
aF0.0
asS'Bacteria.Bacteroidetes.Flavobacteria.Flavobacteriales.Cryomorphaceae'
p1095
(lp1096
F0.0
aF30303.030303030304
aF0.0
aF0.0
aF31250.0
aF0.0
aF0.0
aF0.0
asS'Bacteria.Proteobacteria.Gammaproteobacteria.Legionellales.Legionellaceae.Legionella.yabuuchiae'
p1097
(lp1098
F38461.53846153846
aF0.0
aF0.0
aF25641.02564102564
aF31250.0
aF0.0
aF0.0
aF0.0
asS'Bacteria.Firmicutes.Bacilli.Bacillales.Bacillaceae.Bacillus.alkalitelluris'
p1099
(lp1100
F38461.53846153846
aF0.0
aF0.0
aF0.0
aF0.0
aF0.0
aF0.0
aF0.0
asS'Bacteria.Chloroflexi.Thermomicrobia'
p1101
(lp1102
F38461.53846153846
aF30303.030303030304
aF0.0
aF0.0
aF0.0
aF0.0
aF45454.545454545456
aF0.0
asS'Bacteria.Firmicutes.Bacilli.Bacillales.Paenibacillaceae'
p1103
(lp1104
F0.0
aF0.0
aF0.0
aF0.0
aF93750.0
aF200000.0
aF0.0
aF0.0
asS'Bacteria.Firmicutes.Clostridia.Clostridiales.Unassigned'
p1105
(lp1106
F0.0
aF0.0
aF0.0
aF0.0
aF31250.0
aF0.0
aF0.0
aF0.0
asS'Bacteria.Firmicutes.Clostridia.Halanaerobiales.Halobacteroidaceae'
p1107
(lp1108
F0.0
aF0.0
aF0.0
aF0.0
aF0.0
aF40000.0
aF22727.272727272728
aF0.0
asS'Bacteria.Proteobacteria.Gammaproteobacteria.Oceanospirillales'
p1109
(lp1110
F115384.61538461538
aF90909.09090909091
aF96774.1935483871
aF25641.02564102564
aF0.0
aF40000.0
aF68181.81818181818
aF31250.0
asS'Bacteria.OP3'
p1111
(lp1112
F115384.61538461538
aF121212.12121212122
aF0.0
aF0.0
aF62500.0
aF0.0
aF90909.09090909091
aF218750.0
asS'Bacteria.Proteobacteria.Deltaproteobacteria.Desulfovibrionales.Desulfovibrionaceae.Desulfovibrio'
p1113
(lp1114
F0.0
aF0.0
aF0.0
aF76923.07692307692
aF0.0
aF120000.0
aF22727.272727272728
aF0.0
asS'Bacteria.Firmicutes.Clostridia.Clostridiales'
p1115
(lp1116
F153846.15384615384
aF90909.09090909091
aF161290.32258064518
aF102564.10256410256
aF125000.0
aF160000.0
aF90909.09090909091
aF250000.0
asS'Bacteria.Proteobacteria.Gammaproteobacteria.Xanthomonadales.Xanthomonadaceae.Xanthomonas.axonopodis'
p1117
(lp1118
F38461.53846153846
aF0.0
aF0.0
aF25641.02564102564
aF0.0
aF0.0
aF0.0
aF0.0
asS'Bacteria.OP8'
p1119
(lp1120
F0.0
aF0.0
aF0.0
aF0.0
aF0.0
aF0.0
aF0.0
aF31250.0
asS'Bacteria.OP9'
p1121
(lp1122
F0.0
aF0.0
aF0.0
aF25641.02564102564
aF0.0
aF0.0
aF0.0
aF0.0
asS'Bacteria.Verrucomicrobia.Opitutae.Opitutales.Opitutaceae'
p1123
(lp1124
F76923.07692307692
aF30303.030303030304
aF64516.12903225807
aF128205.1282051282
aF125000.0
aF40000.0
aF0.0
aF31250.0
asS'Bacteria.Proteobacteria.Betaproteobacteria.Burkholderiales.Comamonadaceae.Pelomonas'
p1125
(lp1126
F0.0
aF0.0
aF0.0
aF0.0
aF31250.0
aF0.0
aF0.0
aF0.0
asS'Bacteria.Chloroflexi.Caldilineae.Caldilineales.Caldilineaceae'
p1127
(lp1128
F115384.61538461538
aF0.0
aF64516.12903225807
aF25641.02564102564
aF125000.0
aF80000.0
aF90909.09090909091
aF31250.0
asS'Bacteria.Gemmatimonadetes.Gemmatimonadetes.Gemmatimonadales.Gemmatimonadaceae.Gemmatimonas'
p1129
(lp1130
F423076.92307692306
aF151515.15151515152
aF161290.32258064518
aF256410.2564102564
aF687500.0
aF840000.0
aF22727.272727272728
aF125000.0
asS'Bacteria.Firmicutes.Bacilli.Bacillales.Bacillaceae.Salinibacillus'
p1131
(lp1132
F0.0
aF0.0
aF32258.064516129034
aF0.0
aF0.0
aF0.0
aF0.0
aF0.0
asS'Bacteria.OP11'
p1133
(lp1134
F0.0
aF30303.030303030304
aF0.0
aF0.0
aF0.0
aF0.0
aF0.0
aF31250.0
asS'Bacteria.Chloroflexi.Anaerolineae.Anaerolineales.Anaerolinaceae.Bellilinea'
p1135
(lp1136
F153846.15384615384
aF121212.12121212122
aF32258.064516129034
aF0.0
aF0.0
aF0.0
aF45454.545454545456
aF31250.0
asS'Bacteria.Proteobacteria.Gammaproteobacteria.Chromatiales.Ectothiorhodospiraceae.Alkalispirillum'
p1137
(lp1138
F38461.53846153846
aF0.0
aF0.0
aF0.0
aF0.0
aF0.0
aF0.0
aF31250.0
asS'Bacteria.Planctomycetes.Planctomycetacia.Planctomycetales.Planctomycetaceae'
p1139
(lp1140
F923076.923076923
aF909090.9090909092
aF645161.2903225807
aF717948.717948718
aF1062500.0
aF3040000.0
aF772727.2727272727
aF1593750.0
asS'Bacteria.Gemmatimonadetes.Gemmatimonadetes.Gemmatimonadales.Gemmatimonadaceae'
p1141
(lp1142
F423076.92307692306
aF151515.15151515152
aF161290.32258064518
aF256410.2564102564
aF687500.0
aF840000.0
aF22727.272727272728
aF125000.0
asS'Bacteria.Proteobacteria.Alphaproteobacteria.Rhizobiales.Phyllobacteriaceae.Ahrensia'
p1143
(lp1144
F38461.53846153846
aF30303.030303030304
aF32258.064516129034
aF25641.02564102564
aF0.0
aF0.0
aF0.0
aF31250.0
asS'Bacteria.Proteobacteria.Deltaproteobacteria.Desulfuromonadales.Desulfuromonadaceae.Pelobacter.seleniigenes'
p1145
(lp1146
F0.0
aF0.0
aF0.0
aF0.0
aF0.0
aF40000.0
aF45454.545454545456
aF31250.0
asS'Bacteria.Bacteroidetes.Sphingobacteria.Sphingobacteriales.Cytophagaceae'
p1147
(lp1148
F0.0
aF90909.09090909091
aF0.0
aF0.0
aF218750.0
aF0.0
aF22727.272727272728
aF31250.0
asS'Bacteria.Proteobacteria.Deltaproteobacteria.Desulfobacterales.Nitrospinaceae.Nitrospinaceae'
p1149
(lp1150
F0.0
aF60606.06060606061
aF0.0
aF25641.02564102564
aF31250.0
aF40000.0
aF0.0
aF62500.0
asS'Bacteria.Bacteroidetes.Sphingobacteria.Sphingobacteriales.Saprospiraceae.Lewinella'
p1151
(lp1152
F38461.53846153846
aF0.0
aF0.0
aF0.0
aF0.0
aF0.0
aF0.0
aF62500.0
asS'Bacteria.Verrucomicrobia.Spartobacteria.Chthoniobacter'
p1153
(lp1154
F38461.53846153846
aF0.0
aF32258.064516129034
aF25641.02564102564
aF31250.0
aF80000.0
aF0.0
aF0.0
asS'Bacteria.Nitrospirae.Nitrospira.Nitrospirales.Nitrospiraceae.Thermodesulfovibrio'
p1155
(lp1156
F38461.53846153846
aF0.0
aF32258.064516129034
aF51282.05128205128
aF0.0
aF0.0
aF0.0
aF0.0
asS'Bacteria.Firmicutes.Clostridia.Clostridiales.Peptococcaceae.Pelotomaculum'
p1157
(lp1158
F0.0
aF0.0
aF0.0
aF0.0
aF31250.0
aF0.0
aF0.0
aF0.0
asS'Bacteria.Proteobacteria.Alphaproteobacteria.Rhodobacterales.Rhodobacteraceae.Roseovarius'
p1159
(lp1160
F38461.53846153846
aF60606.06060606061
aF64516.12903225807
aF25641.02564102564
aF31250.0
aF0.0
aF0.0
aF0.0
asS'Bacteria.Proteobacteria.Gammaproteobacteria.Xanthomonadales.Xanthomonadaceae.Silanimonas'
p1161
(lp1162
F0.0
aF30303.030303030304
aF0.0
aF0.0
aF93750.0
aF40000.0
aF0.0
aF0.0
asS'Bacteria.Actinobacteria.Actinobacteria.Actinomycetales.Microbacteriaceae.Frigoribacterium'
p1163
(lp1164
F0.0
aF0.0
aF0.0
aF0.0
aF31250.0
aF0.0
aF0.0
aF0.0
asS'Bacteria.Proteobacteria.Gammaproteobacteria.Thiotrichales.Thiotrichaceae.Methylohalomonas'
p1165
(lp1166
F0.0
aF30303.030303030304
aF0.0
aF25641.02564102564
aF0.0
aF0.0
aF0.0
aF0.0
asS'Bacteria.Firmicutes.Bacilli.Bacillales.Bacillaceae.Salinibacillus.kushneri'
p1167
(lp1168
F0.0
aF0.0
aF32258.064516129034
aF0.0
aF0.0
aF0.0
aF0.0
aF0.0
asS'Bacteria.Proteobacteria.Deltaproteobacteria.Desulfobacterales.Desulfobacteraceae.Desulforegula.conservatrix'
p1169
(lp1170
F38461.53846153846
aF0.0
aF0.0
aF0.0
aF0.0
aF0.0
aF0.0
aF0.0
asS'Bacteria.Actinobacteria.Actinobacteria.Actinomycetales.Nocardiaceae'
p1171
(lp1172
F38461.53846153846
aF0.0
aF0.0
aF0.0
aF0.0
aF0.0
aF0.0
aF0.0
asS'Bacteria.Actinobacteria.Actinobacteria.Actinomycetales.Microbacteriaceae'
p1173
(lp1174
F0.0
aF0.0
aF32258.064516129034
aF25641.02564102564
aF62500.0
aF0.0
aF0.0
aF31250.0
asS'Bacteria.Proteobacteria.Deltaproteobacteria.Desulfovibrionales.Desulfovibrionaceae.Desulfovibrio.psychrotolerans'
p1175
(lp1176
F0.0
aF30303.030303030304
aF0.0
aF51282.05128205128
aF31250.0
aF0.0
aF0.0
aF0.0
asS'Bacteria.Acidobacteria.Acidobacteria_Gp22.Unassigned.Unassigned.Gp22'
p1177
(lp1178
F230769.23076923075
aF181818.18181818182
aF387096.7741935484
aF179487.1794871795
aF62500.0
aF80000.0
aF159090.9090909091
aF187500.0
asS'Bacteria.Proteobacteria.Gammaproteobacteria.Enterobacteriales.Enterobacteriaceae.Klebsiella'
p1179
(lp1180
F0.0
aF0.0
aF0.0
aF25641.02564102564
aF0.0
aF0.0
aF0.0
aF0.0
asS'Bacteria.Actinobacteria.Actinobacteria.Actinomycetales.Streptomycetaceae.Streptomyces'
p1181
(lp1182
F38461.53846153846
aF121212.12121212122
aF0.0
aF0.0
aF31250.0
aF160000.0
aF0.0
aF62500.0
asS'Bacteria.Actinobacteria.Actinobacteria.Actinomycetales.Pseudonocardiaceae.Pseudonocardia'
p1183
(lp1184
F0.0
aF30303.030303030304
aF0.0
aF0.0
aF31250.0
aF40000.0
aF0.0
aF0.0
asS'Bacteria.Actinobacteria.Actinobacteria.Actinomycetales.Unassigned.Demequina'
p1185
(lp1186
F0.0
aF0.0
aF161290.32258064518
aF25641.02564102564
aF31250.0
aF40000.0
aF0.0
aF31250.0
asS'Bacteria.Actinobacteria.Actinobacteria.Actinomycetales.Pseudonocardiaceae.Prauserella'
p1187
(lp1188
F0.0
aF0.0
aF0.0
aF25641.02564102564
aF0.0
aF0.0
aF0.0
aF0.0
asS'Bacteria.Proteobacteria.Deltaproteobacteria.Desulfobacterales.Desulfobacteraceae.Desulfatibacillum'
p1189
(lp1190
F0.0
aF0.0
aF64516.12903225807
aF0.0
aF0.0
aF0.0
aF0.0
aF0.0
asS'Bacteria.Proteobacteria.Deltaproteobacteria.Myxococcales.Polyangiaceae.Sorangium'
p1191
(lp1192
F38461.53846153846
aF0.0
aF0.0
aF0.0
aF0.0
aF0.0
aF0.0
aF0.0
asS'Bacteria.Chloroflexi.Anaerolineae.Anaerolineales.Anaerolinaceae.Longilinea'
p1193
(lp1194
F38461.53846153846
aF30303.030303030304
aF0.0
aF25641.02564102564
aF62500.0
aF40000.0
aF0.0
aF31250.0
asS'Bacteria.Acidobacteria.Acidobacteria_Gp22.Unassigned.Unassigned'
p1195
(lp1196
F230769.23076923075
aF181818.18181818182
aF387096.7741935484
aF179487.1794871795
aF62500.0
aF80000.0
aF159090.9090909091
aF187500.0
asS'Bacteria.Proteobacteria.Gammaproteobacteria.Unassigned.Unassigned.Sedimenticola'
p1197
(lp1198
F76923.07692307692
aF0.0
aF0.0
aF76923.07692307692
aF93750.0
aF80000.0
aF68181.81818181818
aF0.0
asS'Bacteria.Proteobacteria.Alphaproteobacteria.Rhodospirillales.Rhodospirillaceae.Thalassospira'
p1199
(lp1200
F38461.53846153846
aF60606.06060606061
aF32258.064516129034
aF282051.28205128206
aF31250.0
aF0.0
aF0.0
aF31250.0
asS'Bacteria.Acidobacteria.Acidobacteria_Gp26.Unassigned.Unassigned'
p1201
(lp1202
F38461.53846153846
aF30303.030303030304
aF32258.064516129034
aF25641.02564102564
aF31250.0
aF0.0
aF45454.545454545456
aF0.0
asS'Bacteria.Proteobacteria.Alphaproteobacteria.Rhodospirillales'
p1203
(lp1204
F115384.61538461538
aF60606.06060606061
aF0.0
aF0.0
aF343750.0
aF120000.0
aF0.0
aF62500.0
asS'Bacteria.Proteobacteria.Betaproteobacteria.Nitrosomonadales.Gallionellaceae'
p1205
(lp1206
F0.0
aF60606.06060606061
aF0.0
aF76923.07692307692
aF31250.0
aF0.0
aF0.0
aF0.0
asS'Bacteria.Verrucomicrobia.Verrucomicrobiae.Verrucomicrobiales.Verrucomicrobiaceae.Luteolibacter'
p1207
(lp1208
F115384.61538461538
aF30303.030303030304
aF96774.1935483871
aF76923.07692307692
aF0.0
aF80000.0
aF22727.272727272728
aF31250.0
asS'Bacteria.Proteobacteria.Alphaproteobacteria.Rhodobacterales.Rhodobacteraceae.Marinosulfomonas'
p1209
(lp1210
F38461.53846153846
aF0.0
aF64516.12903225807
aF25641.02564102564
aF0.0
aF0.0
aF0.0
aF0.0
asS'Bacteria.Acidobacteria.Acidobacteria.Acidobacteriales.Acidobacteriaceae'
p1211
(lp1212
F1076923.076923077
aF1545454.5454545454
aF1032258.0645161291
aF615384.6153846154
aF1687500.0
aF1760000.0
aF977272.7272727273
aF1812500.0
asS'Bacteria.Chlamydiae.Chlamydiae.Chlamydiales.Parachlamydiaceae'
p1213
(lp1214
F0.0
aF90909.09090909091
aF32258.064516129034
aF0.0
aF31250.0
aF80000.0
aF0.0
aF31250.0
asS'Bacteria.Verrucomicrobia.Opitutae.Opitutales.Opitutaceae.Opitutus'
p1215
(lp1216
F76923.07692307692
aF0.0
aF64516.12903225807
aF102564.10256410256
aF93750.0
aF40000.0
aF0.0
aF31250.0
asS'Bacteria.Cyanobacteria.Cyanobacteria.SubsectionIII.Unassigned.Phormidium'
p1217
(lp1218
F0.0
aF0.0
aF0.0
aF0.0
aF93750.0
aF40000.0
aF0.0
aF0.0
asS'Bacteria.Verrucomicrobia.Opitutae.Puniceicoccales.Puniceicoccaceae.Cerasicoccus'
p1219
(lp1220
F0.0
aF30303.030303030304
aF0.0
aF25641.02564102564
aF0.0
aF40000.0
aF22727.272727272728
aF0.0
asS'Bacteria.Planctomycetes.Planctomycetacia.Planctomycetales'
p1221
(lp1222
F923076.923076923
aF909090.9090909092
aF645161.2903225807
aF717948.717948718
aF1062500.0
aF3040000.0
aF772727.2727272727
aF1593750.0
asS'Bacteria.Proteobacteria.Gammaproteobacteria.Oceanospirillales.Oceanospirillaceae.Neptuniibacter'
p1223
(lp1224
F0.0
aF0.0
aF32258.064516129034
aF0.0
aF0.0
aF0.0
aF0.0
aF31250.0
asS'Bacteria.Actinobacteria.Actinobacteria.Actinomycetales.Nocardioidaceae.Nocardioides'
p1225
(lp1226
F38461.53846153846
aF30303.030303030304
aF0.0
aF25641.02564102564
aF0.0
aF80000.0
aF0.0
aF0.0
asS'Bacteria.Proteobacteria.Alphaproteobacteria.Rickettsiales.Unassigned'
p1227
(lp1228
F38461.53846153846
aF30303.030303030304
aF0.0
aF0.0
aF62500.0
aF40000.0
aF22727.272727272728
aF62500.0
asS'Bacteria.Proteobacteria.Alphaproteobacteria.Rhizobiales.Bartonellaceae.Bartonella.elizabethae'
p1229
(lp1230
F0.0
aF0.0
aF0.0
aF0.0
aF62500.0
aF0.0
aF0.0
aF31250.0
asS'Bacteria.Proteobacteria.Gammaproteobacteria.Acidithiobacillales.Acidithiobacillaceae.Acidithiobacillus'
p1231
(lp1232
F230769.23076923075
aF121212.12121212122
aF258064.51612903227
aF205128.20512820513
aF62500.0
aF80000.0
aF886363.6363636364
aF500000.0
asS'Bacteria.Planctomycetes.Phycisphaerae.Phycisphaerales.Phycisphaeraceae.Phycisphaera'
p1233
(lp1234
F76923.07692307692
aF90909.09090909091
aF0.0
aF51282.05128205128
aF31250.0
aF280000.0
aF90909.09090909091
aF31250.0
asS'Bacteria.Cyanobacteria.Cyanobacteria.SubsectionIII.Unassigned'
p1235
(lp1236
F0.0
aF0.0
aF0.0
aF0.0
aF62500.0
aF0.0
aF45454.545454545456
aF0.0
asS'Bacteria.Verrucomicrobia.Opitutae.Opitutales'
p1237
(lp1238
F76923.07692307692
aF30303.030303030304
aF64516.12903225807
aF128205.1282051282
aF125000.0
aF40000.0
aF0.0
aF31250.0
asS'Bacteria.Proteobacteria.Deltaproteobacteria.Desulfobacterales.Desulfobulbaceae.Desulfocapsa'
p1239
(lp1240
F0.0
aF30303.030303030304
aF0.0
aF25641.02564102564
aF31250.0
aF200000.0
aF0.0
aF0.0
asS'Bacteria.Proteobacteria.Gammaproteobacteria.Alteromonadales.Pseudoalteromonadaceae.Pseudoalteromonas'
p1241
(lp1242
F76923.07692307692
aF90909.09090909091
aF32258.064516129034
aF0.0
aF0.0
aF40000.0
aF0.0
aF0.0
asS'Bacteria.Actinobacteria.Actinobacteria.Actinomycetales.Propionibacteriaceae.Propionibacterium'
p1243
(lp1244
F0.0
aF0.0
aF0.0
aF0.0
aF0.0
aF0.0
aF22727.272727272728
aF0.0
asS'Bacteria.Proteobacteria.Deltaproteobacteria.Desulfarculales.Desulfarculaceae.Desulfarculus'
p1245
(lp1246
F76923.07692307692
aF30303.030303030304
aF0.0
aF0.0
aF0.0
aF0.0
aF0.0
aF0.0
asS'Bacteria.Chloroflexi.Anaerolineae'
p1247
(lp1248
F38461.53846153846
aF60606.06060606061
aF258064.51612903227
aF102564.10256410256
aF312500.0
aF120000.0
aF181818.18181818182
aF156250.0
asS'Bacteria.Bacteroidetes.Flavobacteria.Flavobacteriales.Flavobacteriaceae.Polaribacter'
p1249
(lp1250
F0.0
aF0.0
aF32258.064516129034
aF0.0
aF0.0
aF0.0
aF0.0
aF31250.0
asS'Bacteria.Bacteroidetes.Flavobacteria.Flavobacteriales.Flavobacteriaceae.Robiginitalea'
p1251
(lp1252
F76923.07692307692
aF0.0
aF32258.064516129034
aF25641.02564102564
aF0.0
aF0.0
aF0.0
aF0.0
asS'Bacteria.Proteobacteria.Deltaproteobacteria.Desulfuromonadales.Desulfuromonadaceae.Desulfuromonas'
p1253
(lp1254
F153846.15384615384
aF151515.15151515152
aF32258.064516129034
aF51282.05128205128
aF250000.0
aF280000.0
aF204545.45454545456
aF437500.0
asS'Bacteria.Proteobacteria.Gammaproteobacteria.Legionellales.Coxiellaceae.Aquicella'
p1255
(lp1256
F38461.53846153846
aF30303.030303030304
aF32258.064516129034
aF25641.02564102564
aF62500.0
aF40000.0
aF22727.272727272728
aF0.0
asS'Bacteria.Firmicutes.Bacilli.Bacillales'
p1257
(lp1258
F307692.3076923077
aF454545.4545454546
aF32258.064516129034
aF128205.1282051282
aF906250.0
aF960000.0
aF318181.8181818182
aF218750.0
asS'Bacteria.Proteobacteria.Gammaproteobacteria.Vibrionales.Vibrionaceae.Photobacterium'
p1259
(lp1260
F38461.53846153846
aF0.0
aF0.0
aF0.0
aF0.0
aF40000.0
aF0.0
aF0.0
asS'Bacteria.Chlamydiae.Chlamydiae.Chlamydiales.Criblamydiaceae.Criblamydia'
p1261
(lp1262
F0.0
aF30303.030303030304
aF0.0
aF0.0
aF0.0
aF0.0
aF0.0
aF0.0
asS'Bacteria.Proteobacteria.Deltaproteobacteria.Desulfovibrionales.Desulfovibrionaceae.Bilophila'
p1263
(lp1264
F38461.53846153846
aF30303.030303030304
aF0.0
aF0.0
aF31250.0
aF0.0
aF0.0
aF0.0
asS'Bacteria.Proteobacteria.Betaproteobacteria.Rhodocyclales.Rhodocyclaceae'
p1265
(lp1266
F38461.53846153846
aF0.0
aF0.0
aF102564.10256410256
aF0.0
aF80000.0
aF45454.545454545456
aF62500.0
asS'Bacteria.Proteobacteria.Deltaproteobacteria.Myxococcales.Nannocystaceae'
p1267
(lp1268
F0.0
aF0.0
aF32258.064516129034
aF25641.02564102564
aF0.0
aF0.0
aF0.0
aF0.0
asS'Bacteria.Proteobacteria.Gammaproteobacteria.Chromatiales.Ectothiorhodospiraceae.Thioalkalispira'
p1269
(lp1270
F0.0
aF30303.030303030304
aF0.0
aF76923.07692307692
aF0.0
aF0.0
aF45454.545454545456
aF62500.0
asS'Bacteria.Cyanobacteria.Cyanobacteria.SubsectionI.Unassigned.Synechococcus'
p1271
(lp1272
F38461.53846153846
aF0.0
aF0.0
aF0.0
aF0.0
aF0.0
aF0.0
aF0.0
asS'Bacteria.Proteobacteria.Gammaproteobacteria.Legionellales.Coxiellaceae.Coxiella'
p1273
(lp1274
F153846.15384615384
aF212121.21212121213
aF64516.12903225807
aF25641.02564102564
aF93750.0
aF40000.0
aF500000.0
aF343750.0
asS'Bacteria.Proteobacteria.Betaproteobacteria.Hydrogenophilales'
p1275
(lp1276
F0.0
aF0.0
aF0.0
aF0.0
aF31250.0
aF0.0
aF0.0
aF0.0
asS'Bacteria.Verrucomicrobia.Verrucomicrobiae'
p1277
(lp1278
F0.0
aF0.0
aF0.0
aF25641.02564102564
aF0.0
aF0.0
aF0.0
aF0.0
asS'Bacteria.Planctomycetes.Planctomycetacia'
p1279
(lp1280
F923076.923076923
aF909090.9090909092
aF645161.2903225807
aF717948.717948718
aF1062500.0
aF3040000.0
aF772727.2727272727
aF1593750.0
asS'Bacteria.Proteobacteria.Alphaproteobacteria.Rhizobiales.Unassigned.Nordella'
p1281
(lp1282
F38461.53846153846
aF30303.030303030304
aF0.0
aF0.0
aF31250.0
aF0.0
aF0.0
aF0.0
asS'Bacteria.Proteobacteria.Alphaproteobacteria.Rhodobacterales.Rhodobacteraceae.Rhodobacter'
p1283
(lp1284
F0.0
aF0.0
aF0.0
aF0.0
aF0.0
aF80000.0
aF0.0
aF0.0
asS'Bacteria.Proteobacteria.Alphaproteobacteria.Rhizobiales.Bradyrhizobiaceae'
p1285
(lp1286
F0.0
aF30303.030303030304
aF0.0
aF0.0
aF31250.0
aF0.0
aF0.0
aF0.0
asS'Bacteria.Actinobacteria.Actinobacteria.Actinomycetales.Propionibacteriaceae'
p1287
(lp1288
F76923.07692307692
aF30303.030303030304
aF0.0
aF0.0
aF0.0
aF0.0
aF22727.272727272728
aF0.0
asS'Bacteria.Proteobacteria.Gammaproteobacteria.Alteromonadales.Alteromonadaceae.Marinobacter'
p1289
(lp1290
F0.0
aF0.0
aF32258.064516129034
aF0.0
aF62500.0
aF80000.0
aF22727.272727272728
aF62500.0
asS'Bacteria.Lentisphaerae.Lentisphaeria.Victivallales'
p1291
(lp1292
F38461.53846153846
aF30303.030303030304
aF0.0
aF0.0
aF0.0
aF40000.0
aF0.0
aF0.0
asS'Bacteria.Proteobacteria.Deltaproteobacteria.Desulfuromonadales.Desulfuromonadaceae.Pelobacter'
p1293
(lp1294
F76923.07692307692
aF60606.06060606061
aF0.0
aF25641.02564102564
aF0.0
aF0.0
aF0.0
aF0.0
asS'Bacteria.Chlorobi'
p1295
(lp1296
F423076.92307692306
aF212121.21212121213
aF129032.25806451614
aF256410.2564102564
aF312500.0
aF720000.0
aF22727.272727272728
aF62500.0
asS'Bacteria.Bacteroidetes.Bacteroidia'
p1297
(lp1298
F0.0
aF0.0
aF0.0
aF25641.02564102564
aF31250.0
aF0.0
aF0.0
aF62500.0
asS'Bacteria.Firmicutes.Erysipelotrichi'
p1299
(lp1300
F0.0
aF0.0
aF0.0
aF0.0
aF0.0
aF40000.0
aF0.0
aF0.0
asS'Bacteria.Firmicutes.Bacilli.Bacillales.Thermoactinomycetaceae'
p1301
(lp1302
F38461.53846153846
aF0.0
aF0.0
aF0.0
aF0.0
aF0.0
aF0.0
aF0.0
asS'Bacteria.Verrucomicrobia.Spartobacteria.Chthoniobacterales'
p1303
(lp1304
F0.0
aF0.0
aF0.0
aF0.0
aF31250.0
aF0.0
aF0.0
aF0.0
asS'Bacteria.Bacteroidetes.Flavobacteria.Flavobacteriales.Flavobacteriaceae.Flavobacterium'
p1305
(lp1306
F0.0
aF0.0
aF64516.12903225807
aF25641.02564102564
aF0.0
aF0.0
aF0.0
aF0.0
asS'Bacteria.Proteobacteria.Gammaproteobacteria.Oceanospirillales.Alcanivoracaceae'
p1307
(lp1308
F0.0
aF30303.030303030304
aF64516.12903225807
aF25641.02564102564
aF0.0
aF120000.0
aF0.0
aF62500.0
asS'Bacteria.Chloroflexi.Dehalococcoidetes'
p1309
(lp1310
F38461.53846153846
aF0.0
aF0.0
aF0.0
aF31250.0
aF40000.0
aF45454.545454545456
aF31250.0
asS'Bacteria.Bacteroidetes.Bacteroidia.Bacteroidales.Prevotellaceae.Prevotella'
p1311
(lp1312
F38461.53846153846
aF0.0
aF32258.064516129034
aF0.0
aF0.0
aF0.0
aF0.0
aF0.0
asS'Bacteria.Actinobacteria.Actinobacteria.Actinomycetales.Nocardioidaceae.Nocardioides.basaltis'
p1313
(lp1314
F0.0
aF0.0
aF0.0
aF0.0
aF0.0
aF0.0
aF0.0
aF31250.0
asS'Bacteria.Actinobacteria.Actinobacteria.Solirubrobacterales.Conexibacteraceae'
p1315
(lp1316
F0.0
aF60606.06060606061
aF64516.12903225807
aF102564.10256410256
aF31250.0
aF80000.0
aF0.0
aF31250.0
asS'Bacteria.Bacteroidetes.Sphingobacteria.Sphingobacteriales'
p1317
(lp1318
F115384.61538461538
aF30303.030303030304
aF32258.064516129034
aF76923.07692307692
aF62500.0
aF0.0
aF22727.272727272728
aF62500.0
asS'Bacteria.Proteobacteria.Deltaproteobacteria.Desulfarculales.Desulfarculaceae'
p1319
(lp1320
F76923.07692307692
aF30303.030303030304
aF32258.064516129034
aF128205.1282051282
aF31250.0
aF40000.0
aF22727.272727272728
aF0.0
asS'Bacteria.Proteobacteria.Alphaproteobacteria.Rhodospirillales.Rhodospirillaceae.Nisaea'
p1321
(lp1322
F38461.53846153846
aF0.0
aF32258.064516129034
aF0.0
aF93750.0
aF40000.0
aF22727.272727272728
aF62500.0
asS'Bacteria.Proteobacteria.Alphaproteobacteria.Rhizobiales.Rhodobiaceae.Rhodobium'
p1323
(lp1324
F269230.76923076925
aF181818.18181818182
aF129032.25806451614
aF51282.05128205128
aF156250.0
aF200000.0
aF45454.545454545456
aF187500.0
asS'Bacteria.Proteobacteria.Gammaproteobacteria.Chromatiales.Ectothiorhodospiraceae'
p1325
(lp1326
F0.0
aF0.0
aF32258.064516129034
aF0.0
aF0.0
aF0.0
aF45454.545454545456
aF93750.0
asS'Bacteria.Chlamydiae.Chlamydiae.Chlamydiales.Chlamydiaceae.Clavochlamydia'
p1327
(lp1328
F0.0
aF0.0
aF0.0
aF25641.02564102564
aF31250.0
aF0.0
aF0.0
aF0.0
asS'Bacteria.Deinococcus_Thermus.Deinococci.Deinococcales'
p1329
(lp1330
F0.0
aF0.0
aF64516.12903225807
aF0.0
aF0.0
aF40000.0
aF0.0
aF0.0
asS'Bacteria.Proteobacteria.Alphaproteobacteria.Rhizobiales.Brucellaceae.Daeguia'
p1331
(lp1332
F0.0
aF0.0
aF32258.064516129034
aF0.0
aF0.0
aF0.0
aF0.0
aF0.0
asS'Bacteria.Bacteroidetes.Sphingobacteria.Sphingobacteriales.Rhodothermaceae'
p1333
(lp1334
F192307.6923076923
aF90909.09090909091
aF129032.25806451614
aF128205.1282051282
aF31250.0
aF320000.0
aF90909.09090909091
aF250000.0
asS'Bacteria.Proteobacteria.Betaproteobacteria.Burkholderiales.Unassigned.Thiomonas'
p1335
(lp1336
F0.0
aF0.0
aF0.0
aF0.0
aF0.0
aF40000.0
aF0.0
aF0.0
asS'Bacteria.Proteobacteria.Alphaproteobacteria.Rhizobiales.Hyphomicrobiaceae'
p1337
(lp1338
F0.0
aF0.0
aF0.0
aF76923.07692307692
aF62500.0
aF80000.0
aF22727.272727272728
aF0.0
asS'Bacteria.Chloroflexi.Chloroflexi'
p1339
(lp1340
F0.0
aF0.0
aF0.0
aF0.0
aF62500.0
aF0.0
aF0.0
aF0.0
asS'Bacteria.Proteobacteria.Gammaproteobacteria.Enterobacteriales.Enterobacteriaceae.Sodalis'
p1341
(lp1342
F0.0
aF0.0
aF32258.064516129034
aF51282.05128205128
aF0.0
aF80000.0
aF22727.272727272728
aF93750.0
asS'Bacteria.Proteobacteria.Deltaproteobacteria.Desulfobacterales.Desulfobacteraceae.Desulfobacterium'
p1343
(lp1344
F153846.15384615384
aF0.0
aF0.0
aF76923.07692307692
aF0.0
aF160000.0
aF68181.81818181818
aF0.0
asS'Bacteria.Proteobacteria.Alphaproteobacteria.Rhodobacterales.Rhodobacteraceae.Rubrimonas'
p1345
(lp1346
F0.0
aF30303.030303030304
aF32258.064516129034
aF0.0
aF0.0
aF0.0
aF0.0
aF0.0
asS'Bacteria.Firmicutes.Bacilli.Bacillales.Alicyclobacillaceae'
p1347
(lp1348
F76923.07692307692
aF0.0
aF0.0
aF25641.02564102564
aF31250.0
aF200000.0
aF22727.272727272728
aF31250.0
asS'Bacteria.Actinobacteria.Actinobacteria.Actinomycetales.Geodermatophilaceae'
p1349
(lp1350
F0.0
aF0.0
aF0.0
aF0.0
aF31250.0
aF40000.0
aF0.0
aF0.0
asS'Bacteria.Proteobacteria.Deltaproteobacteria.Syntrophobacterales.Syntrophaceae.Syntrophus'
p1351
(lp1352
F0.0
aF0.0
aF0.0
aF51282.05128205128
aF0.0
aF0.0
aF0.0
aF0.0
asS'Bacteria.Proteobacteria.Alphaproteobacteria.Rhizobiales.Phyllobacteriaceae.Mesorhizobium.mediterraneum'
p1353
(lp1354
F38461.53846153846
aF0.0
aF0.0
aF0.0
aF0.0
aF0.0
aF0.0
aF0.0
asS'Bacteria.Proteobacteria.Deltaproteobacteria.Myxococcales.Phaselicystidaceae.Phaselicystis'
p1355
(lp1356
F38461.53846153846
aF30303.030303030304
aF64516.12903225807
aF25641.02564102564
aF62500.0
aF0.0
aF22727.272727272728
aF0.0
asS'Bacteria.Firmicutes.Clostridia.Clostridiales.Clostridiaceae.Caminicella'
p1357
(lp1358
F0.0
aF30303.030303030304
aF0.0
aF0.0
aF0.0
aF0.0
aF68181.81818181818
aF31250.0
asS'Bacteria.Proteobacteria.Alphaproteobacteria.Rickettsiales.Unassigned.Caedibacter'
p1359
(lp1360
F0.0
aF30303.030303030304
aF0.0
aF0.0
aF31250.0
aF0.0
aF0.0
aF31250.0
asS'Bacteria.Chlamydiae.Chlamydiae.Chlamydiales.Simkaniaceae.Fritschea'
p1361
(lp1362
F38461.53846153846
aF30303.030303030304
aF0.0
aF0.0
aF31250.0
aF0.0
aF22727.272727272728
aF31250.0
asS'Bacteria.Proteobacteria.Gammaproteobacteria.Alteromonadales.Idiomarinaceae'
p1363
(lp1364
F115384.61538461538
aF30303.030303030304
aF64516.12903225807
aF25641.02564102564
aF0.0
aF0.0
aF0.0
aF0.0
asS'Bacteria.Proteobacteria.Alphaproteobacteria.Rhizobiales.Hyphomicrobiaceae.Prosthecomicrobium.consociatum'
p1365
(lp1366
F0.0
aF0.0
aF0.0
aF0.0
aF0.0
aF0.0
aF0.0
aF31250.0
asS'Bacteria.Proteobacteria.Gammaproteobacteria.Chromatiales.Chromatiaceae.Nitrosococcus'
p1367
(lp1368
F115384.61538461538
aF121212.12121212122
aF96774.1935483871
aF205128.20512820513
aF62500.0
aF160000.0
aF136363.63636363635
aF187500.0
asS'Bacteria.Planctomycetes.Planctomycetacia.Planctomycetales.Planctomycetaceae.Rhodopirellula'
p1369
(lp1370
F38461.53846153846
aF121212.12121212122
aF129032.25806451614
aF51282.05128205128
aF125000.0
aF120000.0
aF22727.272727272728
aF93750.0
asS'Bacteria.Proteobacteria.Deltaproteobacteria.Desulfuromonadales.Geobacteraceae.Geothermobacter'
p1371
(lp1372
F38461.53846153846
aF212121.21212121213
aF64516.12903225807
aF102564.10256410256
aF156250.0
aF280000.0
aF159090.9090909091
aF343750.0
asS'Bacteria.Chloroflexi.Dehalococcoidetes.Unassigned'
p1373
(lp1374
F38461.53846153846
aF0.0
aF0.0
aF0.0
aF31250.0
aF40000.0
aF45454.545454545456
aF31250.0
asS'Bacteria.Acidobacteria.Holophagae'
p1375
(lp1376
F692307.6923076923
aF454545.4545454546
aF709677.4193548388
aF282051.28205128206
aF406250.0
aF440000.0
aF318181.8181818182
aF187500.0
asS'Bacteria.Proteobacteria.Alphaproteobacteria.Caulobacterales.Hyphomonadaceae.Hyphomonas.Hyphomonas'
p1377
(lp1378
F230769.23076923075
aF0.0
aF96774.1935483871
aF25641.02564102564
aF0.0
aF0.0
aF0.0
aF0.0
asS'Bacteria.Actinobacteria.Actinobacteria.Actinomycetales.Kineosporiaceae'
p1379
(lp1380
F115384.61538461538
aF0.0
aF64516.12903225807
aF51282.05128205128
aF0.0
aF0.0
aF0.0
aF0.0
asS'Bacteria.Chloroflexi.Anaerolineae.Anaerolineales'
p1381
(lp1382
F38461.53846153846
aF60606.06060606061
aF258064.51612903227
aF102564.10256410256
aF312500.0
aF120000.0
aF181818.18181818182
aF156250.0
asS'Bacteria.Proteobacteria.Gammaproteobacteria.Chromatiales.Halothiobacillaceae.Thioalkalibacter.halophilus'
p1383
(lp1384
F0.0
aF0.0
aF0.0
aF0.0
aF0.0
aF0.0
aF22727.272727272728
aF0.0
asS'Bacteria.Chlamydiae.Chlamydiae.Chlamydiales.Simkaniaceae'
p1385
(lp1386
F0.0
aF0.0
aF32258.064516129034
aF0.0
aF0.0
aF40000.0
aF0.0
aF0.0
asS'Bacteria.Proteobacteria.Deltaproteobacteria.Desulfobacterales.Desulfobacteraceae.Desulfococcus'
p1387
(lp1388
F0.0
aF30303.030303030304
aF0.0
aF51282.05128205128
aF0.0
aF0.0
aF0.0
aF0.0
asS'Bacteria.Proteobacteria.Gammaproteobacteria.Xanthomonadales.Xanthomonadaceae.Xanthomonas'
p1389
(lp1390
F38461.53846153846
aF0.0
aF0.0
aF25641.02564102564
aF0.0
aF0.0
aF0.0
aF0.0
asS'Bacteria.Actinobacteria.Actinobacteria.Actinomycetales.Micrococcaceae.Zhihengliuella.alba'
p1391
(lp1392
F0.0
aF0.0
aF0.0
aF0.0
aF31250.0
aF0.0
aF0.0
aF0.0
asS'Bacteria.Chloroflexi'
p1393
(lp1394
F500000.0
aF545454.5454545454
aF161290.32258064518
aF205128.20512820513
aF562500.0
aF1800000.0
aF340909.09090909094
aF281250.0
asS'Bacteria.Proteobacteria.Gammaproteobacteria.Oceanospirillales.Saccharospirillaceae'
p1395
(lp1396
F0.0
aF0.0
aF0.0
aF0.0
aF0.0
aF0.0
aF22727.272727272728
aF0.0
asS'Bacteria.Actinobacteria.Actinobacteria.Actinomycetales.Propionibacteriaceae.Jiangella'
p1397
(lp1398
F76923.07692307692
aF30303.030303030304
aF0.0
aF0.0
aF0.0
aF0.0
aF0.0
aF0.0
asS'Bacteria.Proteobacteria.Betaproteobacteria.Neisseriales.Neisseriaceae'
p1399
(lp1400
F38461.53846153846
aF0.0
aF32258.064516129034
aF0.0
aF0.0
aF0.0
aF0.0
aF0.0
asS'Bacteria.Firmicutes.Clostridia.Clostridiales.Veillonellaceae'
p1401
(lp1402
F0.0
aF0.0
aF0.0
aF0.0
aF31250.0
aF0.0
aF0.0
aF0.0
asS'Bacteria.Proteobacteria.Gammaproteobacteria.Vibrionales.Vibrionaceae'
p1403
(lp1404
F38461.53846153846
aF30303.030303030304
aF0.0
aF25641.02564102564
aF0.0
aF80000.0
aF0.0
aF0.0
asS'Bacteria.Firmicutes.Erysipelotrichi.Erysipelotrichales.Erysipelotrichaceae.Turicibacter'
p1405
(lp1406
F0.0
aF0.0
aF0.0
aF0.0
aF0.0
aF40000.0
aF0.0
aF0.0
asS'Bacteria.Proteobacteria.Alphaproteobacteria.Rhizobiales.Phyllobacteriaceae.Nitratireductor'
p1407
(lp1408
F76923.07692307692
aF90909.09090909091
aF32258.064516129034
aF102564.10256410256
aF0.0
aF0.0
aF0.0
aF0.0
asS'Bacteria.Proteobacteria.Alphaproteobacteria.Caulobacterales.Hyphomonadaceae'
p1409
(lp1410
F0.0
aF30303.030303030304
aF0.0
aF0.0
aF125000.0
aF40000.0
aF0.0
aF0.0
asS'Bacteria.Proteobacteria.Deltaproteobacteria.Desulfobacterales.Desulfobulbaceae.Desulfobacterium'
p1411
(lp1412
F76923.07692307692
aF0.0
aF32258.064516129034
aF128205.1282051282
aF0.0
aF0.0
aF22727.272727272728
aF62500.0
asS'Bacteria.Firmicutes.Clostridia'
p1413
(lp1414
F153846.15384615384
aF151515.15151515152
aF193548.3870967742
aF102564.10256410256
aF125000.0
aF240000.0
aF113636.36363636365
aF250000.0
asS'Bacteria.Actinobacteria.Actinobacteria.Actinomycetales.Cellulomonadaceae.Cellulomonas'
p1415
(lp1416
F38461.53846153846
aF0.0
aF0.0
aF0.0
aF0.0
aF0.0
aF0.0
aF0.0
asS'Bacteria.Chloroflexi.Chloroflexi.Chloroflexales'
p1417
(lp1418
F0.0
aF0.0
aF0.0
aF0.0
aF62500.0
aF0.0
aF0.0
aF0.0
asS'Bacteria.Proteobacteria.Gammaproteobacteria.Alteromonadales.Moritellaceae.Paramoritella.alkaliphila'
p1419
(lp1420
F0.0
aF0.0
aF0.0
aF25641.02564102564
aF0.0
aF0.0
aF0.0
aF0.0
asS'Bacteria.Actinobacteria.Actinobacteria.Acidimicrobiales.Iamiaceae'
p1421
(lp1422
F38461.53846153846
aF151515.15151515152
aF96774.1935483871
aF25641.02564102564
aF0.0
aF80000.0
aF22727.272727272728
aF31250.0
asS'Bacteria.Actinobacteria.Actinobacteria.Actinomycetales.Intrasporangiaceae.Physiococcus'
p1423
(lp1424
F38461.53846153846
aF0.0
aF0.0
aF0.0
aF0.0
aF0.0
aF0.0
aF0.0
asS'Bacteria.Proteobacteria.Alphaproteobacteria.Rhizobiales.Phyllobacteriaceae.Phyllobacterium'
p1425
(lp1426
F38461.53846153846
aF30303.030303030304
aF64516.12903225807
aF0.0
aF0.0
aF40000.0
aF0.0
aF0.0
asS'Bacteria.Proteobacteria.Alphaproteobacteria.Rickettsiales.Unassigned.Captivus'
p1427
(lp1428
F38461.53846153846
aF0.0
aF0.0
aF0.0
aF31250.0
aF40000.0
aF22727.272727272728
aF31250.0
asS'Bacteria.Actinobacteria.Actinobacteria.Rubrobacterales'
p1429
(lp1430
F0.0
aF30303.030303030304
aF0.0
aF0.0
aF0.0
aF0.0
aF0.0
aF0.0
asS'Bacteria.Firmicutes.Bacilli.Bacillales.Planococcaceae.Sporosarcina'
p1431
(lp1432
F0.0
aF0.0
aF0.0
aF0.0
aF31250.0
aF0.0
aF0.0
aF0.0
asS'Organelle.Chloroplast.Streptophyta'
p1433
(lp1434
F115384.61538461538
aF30303.030303030304
aF0.0
aF153846.15384615384
aF968750.0
aF40000.0
aF636363.6363636364
aF500000.0
asS'Bacteria.Cyanobacteria.Cyanobacteria.SubsectionI'
p1435
(lp1436
F38461.53846153846
aF30303.030303030304
aF0.0
aF0.0
aF0.0
aF40000.0
aF0.0
aF0.0
asS'Bacteria.Nitrospirae'
p1437
(lp1438
F0.0
aF0.0
aF0.0
aF0.0
aF0.0
aF40000.0
aF0.0
aF0.0
asS'Bacteria.Firmicutes.Clostridia.Clostridiales.Clostridiaceae.Clostridium'
p1439
(lp1440
F0.0
aF0.0
aF0.0
aF51282.05128205128
aF0.0
aF80000.0
aF68181.81818181818
aF62500.0
asS'Bacteria.Proteobacteria.Gammaproteobacteria.Legionellales.Legionellaceae.Legionella'
p1441
(lp1442
F76923.07692307692
aF0.0
aF0.0
aF25641.02564102564
aF0.0
aF0.0
aF0.0
aF31250.0
asS'Bacteria.Bacteroidetes.Flavobacteria.Flavobacteriales.Flavobacteriaceae.Gramella'
p1443
(lp1444
F0.0
aF30303.030303030304
aF0.0
aF0.0
aF31250.0
aF0.0
aF0.0
aF0.0
asS'Bacteria.Proteobacteria.Deltaproteobacteria.Syntrophobacterales.Syntrophaceae.Smithella'
p1445
(lp1446
F38461.53846153846
aF0.0
aF0.0
aF0.0
aF0.0
aF40000.0
aF0.0
aF0.0
asS'Bacteria.Proteobacteria.Alphaproteobacteria.Rhodospirillales.Rhodospirillaceae.Fodinicurvata'
p1447
(lp1448
F0.0
aF0.0
aF32258.064516129034
aF0.0
aF0.0
aF0.0
aF68181.81818181818
aF0.0
asS'Bacteria.Firmicutes.Clostridia.Thermoanaerobacterales.Thermoanaerobacteraceae'
p1449
(lp1450
F0.0
aF30303.030303030304
aF0.0
aF0.0
aF0.0
aF40000.0
aF0.0
aF0.0
asS'Bacteria.Proteobacteria.Gammaproteobacteria.Methylococcales.Methylococcaceae.Methylomonas'
p1451
(lp1452
F38461.53846153846
aF0.0
aF0.0
aF0.0
aF0.0
aF40000.0
aF0.0
aF0.0
asS'Bacteria.Fibrobacteres.Fibrobacteria'
p1453
(lp1454
F0.0
aF0.0
aF0.0
aF25641.02564102564
aF0.0
aF80000.0
aF22727.272727272728
aF0.0
asS'Bacteria.Proteobacteria.Gammaproteobacteria.Aeromonadales'
p1455
(lp1456
F0.0
aF60606.06060606061
aF64516.12903225807
aF0.0
aF31250.0
aF0.0
aF45454.545454545456
aF0.0
asS'Bacteria.Proteobacteria.Deltaproteobacteria.Desulfobacterales.Nitrospinaceae'
p1457
(lp1458
F76923.07692307692
aF60606.06060606061
aF64516.12903225807
aF102564.10256410256
aF31250.0
aF40000.0
aF22727.272727272728
aF93750.0
asS'Bacteria.Bacteroidetes.Sphingobacteria.Sphingobacteriales.Rhodothermaceae.Salinibacter'
p1459
(lp1460
F38461.53846153846
aF0.0
aF0.0
aF0.0
aF0.0
aF0.0
aF22727.272727272728
aF0.0
asS'Bacteria.Proteobacteria.Gammaproteobacteria.Alteromonadales.Shewanellaceae.Shewanella'
p1461
(lp1462
F38461.53846153846
aF0.0
aF0.0
aF0.0
aF0.0
aF0.0
aF0.0
aF0.0
asS'Bacteria.Proteobacteria.Deltaproteobacteria.Desulfuromonadales.Geobacteraceae'
p1463
(lp1464
F76923.07692307692
aF242424.24242424243
aF64516.12903225807
aF128205.1282051282
aF281250.0
aF280000.0
aF181818.18181818182
aF437500.0
asS'Bacteria.Cyanobacteria.Cyanobacteria.SubsectionIV.Unassigned.Nodularia'
p1465
(lp1466
F0.0
aF0.0
aF0.0
aF0.0
aF125000.0
aF40000.0
aF22727.272727272728
aF0.0
asS'Bacteria.Cyanobacteria.Cyanobacteria.SubsectionIII.Unassigned.Spirulina'
p1467
(lp1468
F0.0
aF0.0
aF0.0
aF25641.02564102564
aF0.0
aF40000.0
aF0.0
aF0.0
asS'Bacteria.Proteobacteria.Alphaproteobacteria.Parvularculales.Parvularculaceae'
p1469
(lp1470
F38461.53846153846
aF60606.06060606061
aF129032.25806451614
aF25641.02564102564
aF0.0
aF480000.0
aF90909.09090909091
aF31250.0
asS'Bacteria.Proteobacteria.Alphaproteobacteria.Rhodospirillales.Rhodospirillaceae.Rhodovibrio'
p1471
(lp1472
F38461.53846153846
aF0.0
aF0.0
aF0.0
aF0.0
aF0.0
aF0.0
aF0.0
asS'Bacteria.Actinobacteria.Actinobacteria.Actinomycetales.Nocardioidaceae'
p1473
(lp1474
F153846.15384615384
aF30303.030303030304
aF0.0
aF25641.02564102564
aF62500.0
aF200000.0
aF22727.272727272728
aF0.0
asS'Bacteria.Firmicutes.Bacilli.Bacillales.Alicyclobacillaceae.Alicyclobacillus.ferripilum'
p1475
(lp1476
F0.0
aF0.0
aF0.0
aF0.0
aF0.0
aF40000.0
aF0.0
aF0.0
asS'Bacteria.Proteobacteria.Deltaproteobacteria.Desulfobacterales.Desulfobulbaceae.Desulfopila'
p1477
(lp1478
F0.0
aF0.0
aF32258.064516129034
aF51282.05128205128
aF0.0
aF0.0
aF22727.272727272728
aF0.0
asS'Bacteria.Proteobacteria.Deltaproteobacteria.Bdellovibrionales.Bdellovibrionaceae.Bdellovibrio'
p1479
(lp1480
F0.0
aF60606.06060606061
aF0.0
aF25641.02564102564
aF31250.0
aF80000.0
aF0.0
aF31250.0
asS'Bacteria.Firmicutes.Clostridia.Clostridiales.Peptostreptococcaceae.Sporanaerobacter'
p1481
(lp1482
F0.0
aF0.0
aF0.0
aF0.0
aF0.0
aF0.0
aF0.0
aF31250.0
asS'Bacteria.Proteobacteria.Deltaproteobacteria.Syntrophobacterales.Syntrophaceae.Syntrophus.gentianae'
p1483
(lp1484
F38461.53846153846
aF0.0
aF0.0
aF0.0
aF0.0
aF0.0
aF0.0
aF0.0
asS'Bacteria.Bacteroidetes.Flavobacteria.Flavobacteriales.Flavobacteriaceae.Zeaxanthinibacter'
p1485
(lp1486
F38461.53846153846
aF0.0
aF64516.12903225807
aF25641.02564102564
aF31250.0
aF0.0
aF0.0
aF31250.0
asS'Bacteria.Lentisphaerae.Lentisphaeria.Victivallales.Victivallaceae'
p1487
(lp1488
F38461.53846153846
aF30303.030303030304
aF0.0
aF0.0
aF0.0
aF40000.0
aF0.0
aF0.0
asS'Bacteria.Proteobacteria.Alphaproteobacteria.Rhodobacterales.Rhodobacteraceae.Sediminimonas'
p1489
(lp1490
F0.0
aF0.0
aF0.0
aF25641.02564102564
aF0.0
aF0.0
aF0.0
aF0.0
asS'Bacteria.Cyanobacteria.Cyanobacteria.SubsectionIII'
p1491
(lp1492
F38461.53846153846
aF0.0
aF0.0
aF0.0
aF31250.0
aF40000.0
aF0.0
aF0.0
asS'Bacteria.Proteobacteria.Betaproteobacteria.Burkholderiales.Comamonadaceae.Sphaerotilus'
p1493
(lp1494
F0.0
aF0.0
aF0.0
aF0.0
aF0.0
aF0.0
aF22727.272727272728
aF0.0
asS'Bacteria.Proteobacteria.Deltaproteobacteria.Desulfuromonadales.Desulfuromonadaceae.Desulfuromusa'
p1495
(lp1496
F0.0
aF60606.06060606061
aF64516.12903225807
aF0.0
aF0.0
aF0.0
aF68181.81818181818
aF0.0
asS'Bacteria.Proteobacteria.Gammaproteobacteria.Alteromonadales.Idiomarinaceae.Idiomarina'
p1497
(lp1498
F0.0
aF30303.030303030304
aF0.0
aF0.0
aF0.0
aF0.0
aF0.0
aF0.0
asS'Bacteria.Proteobacteria.Gammaproteobacteria.Thiotrichales.Thiotrichaceae'
p1499
(lp1500
F0.0
aF30303.030303030304
aF32258.064516129034
aF25641.02564102564
aF62500.0
aF0.0
aF0.0
aF31250.0
asS'Bacteria.Proteobacteria.Gammaproteobacteria.Oceanospirillales.Hahellaceae.Endozoicomonas'
p1501
(lp1502
F38461.53846153846
aF0.0
aF0.0
aF0.0
aF0.0
aF0.0
aF0.0
aF0.0
asS'Bacteria.Proteobacteria.Alphaproteobacteria.Rickettsiales.Holosporaceae.Holospora'
p1503
(lp1504
F0.0
aF0.0
aF32258.064516129034
aF0.0
aF0.0
aF0.0
aF0.0
aF31250.0
asS'Bacteria.Proteobacteria.Gammaproteobacteria.Thiotrichales.Piscirickettsiaceae'
p1505
(lp1506
F38461.53846153846
aF90909.09090909091
aF64516.12903225807
aF128205.1282051282
aF31250.0
aF40000.0
aF90909.09090909091
aF187500.0
asS'Bacteria.Verrucomicrobia.Verrucomicrobiae.Verrucomicrobiales'
p1507
(lp1508
F0.0
aF0.0
aF0.0
aF25641.02564102564
aF0.0
aF0.0
aF0.0
aF0.0
asS'Bacteria.Actinobacteria.Actinobacteria.Nitriliruptorales.Nitriliruptoraceae'
p1509
(lp1510
F38461.53846153846
aF121212.12121212122
aF96774.1935483871
aF0.0
aF31250.0
aF920000.0
aF68181.81818181818
aF0.0
asS'Bacteria.Proteobacteria.Deltaproteobacteria.Syntrophobacterales.Syntrophaceae.Desulfomonile'
p1511
(lp1512
F0.0
aF0.0
aF0.0
aF0.0
aF0.0
aF0.0
aF0.0
aF31250.0
asS'Bacteria.Chlamydiae.Chlamydiae.Chlamydiales.Simkaniaceae.Rhabdochlamydia'
p1513
(lp1514
F38461.53846153846
aF30303.030303030304
aF0.0
aF0.0
aF0.0
aF0.0
aF0.0
aF0.0
asS'Bacteria.Chlorobi.Chlorobia.Chlorobiales'
p1515
(lp1516
F423076.92307692306
aF212121.21212121213
aF129032.25806451614
aF256410.2564102564
aF312500.0
aF720000.0
aF22727.272727272728
aF62500.0
asS'Bacteria.Firmicutes.Clostridia.Halanaerobiales.Halanaerobiaceae'
p1517
(lp1518
F0.0
aF30303.030303030304
aF32258.064516129034
aF0.0
aF0.0
aF0.0
aF0.0
aF0.0
asS'Bacteria.Proteobacteria.Gammaproteobacteria.Aeromonadales.Aeromonadaceae'
p1519
(lp1520
F0.0
aF60606.06060606061
aF64516.12903225807
aF0.0
aF31250.0
aF0.0
aF45454.545454545456
aF0.0
asS'Bacteria.Proteobacteria.Alphaproteobacteria.Rhizobiales.Bartonellaceae'
p1521
(lp1522
F38461.53846153846
aF0.0
aF0.0
aF0.0
aF62500.0
aF0.0
aF0.0
aF31250.0
asS'Bacteria.Proteobacteria.Betaproteobacteria.Burkholderiales.Oxalobacteraceae.Massilia'
p1523
(lp1524
F0.0
aF0.0
aF0.0
aF0.0
aF0.0
aF0.0
aF0.0
aF31250.0
asS'Bacteria.Actinobacteria'
p1525
(lp1526
F38461.53846153846
aF90909.09090909091
aF32258.064516129034
aF51282.05128205128
aF0.0
aF160000.0
aF0.0
aF0.0
asS'Bacteria.Proteobacteria.Alphaproteobacteria.Rhizobiales.Rhizobiaceae.Ensifer'
p1527
(lp1528
F76923.07692307692
aF0.0
aF32258.064516129034
aF51282.05128205128
aF0.0
aF0.0
aF0.0
aF0.0
asS'Bacteria.Planctomycetes.Planctomycetacia.Planctomycetales.Planctomycetaceae.Zavarzinella'
p1529
(lp1530
F0.0
aF0.0
aF0.0
aF0.0
aF0.0
aF0.0
aF22727.272727272728
aF0.0
asS'Bacteria.Actinobacteria.Actinobacteria.Actinomycetales.Mycobacteriaceae.Mycobacterium'
p1531
(lp1532
F38461.53846153846
aF30303.030303030304
aF96774.1935483871
aF76923.07692307692
aF93750.0
aF160000.0
aF90909.09090909091
aF0.0
asS'Bacteria.Planctomycetes.Phycisphaerae.Phycisphaerales.Phycisphaeraceae'
p1533
(lp1534
F192307.6923076923
aF212121.21212121213
aF161290.32258064518
aF76923.07692307692
aF375000.0
aF600000.0
aF113636.36363636365
aF93750.0
asS'Bacteria.Proteobacteria.Betaproteobacteria.Burkholderiales'
p1535
(lp1536
F0.0
aF0.0
aF0.0
aF25641.02564102564
aF0.0
aF40000.0
aF0.0
aF31250.0
asS'Bacteria.Bacteroidetes.Sphingobacteria.Sphingobacteriales.Cytophagaceae.Flexibacter'
p1537
(lp1538
F0.0
aF30303.030303030304
aF0.0
aF0.0
aF156250.0
aF0.0
aF0.0
aF31250.0
asS'Bacteria.Proteobacteria.Alphaproteobacteria.Sphingomonadales.Sphingomonadaceae.Sphingobium'
p1539
(lp1540
F0.0
aF0.0
aF0.0
aF0.0
aF31250.0
aF0.0
aF0.0
aF0.0
asS'Bacteria.Bacteroidetes.Sphingobacteria.Sphingobacteriales.Saprospiraceae.Haliscomenobacter'
p1541
(lp1542
F0.0
aF30303.030303030304
aF0.0
aF51282.05128205128
aF0.0
aF0.0
aF0.0
aF0.0
asS'Bacteria.Actinobacteria.Actinobacteria.Actinomycetales.Micrococcaceae'
p1543
(lp1544
F0.0
aF0.0
aF32258.064516129034
aF0.0
aF93750.0
aF0.0
aF0.0
aF0.0
asS'Bacteria.Proteobacteria.Betaproteobacteria.Burkholderiales.Comamonadaceae.Hydrogenophaga'
p1545
(lp1546
F0.0
aF0.0
aF0.0
aF25641.02564102564
aF0.0
aF0.0
aF0.0
aF0.0
asS'Bacteria.Proteobacteria.Alphaproteobacteria.Rhizobiales.Hyphomicrobiaceae.Maritalea'
p1547
(lp1548
F38461.53846153846
aF0.0
aF0.0
aF25641.02564102564
aF31250.0
aF0.0
aF0.0
aF0.0
asS'Bacteria.Spirochaetes.Spirochaetes.Spirochaetales.Leptospiraceae.Turneriella'
p1549
(lp1550
F0.0
aF0.0
aF32258.064516129034
aF0.0
aF0.0
aF0.0
aF0.0
aF0.0
asS'Bacteria.Gemmatimonadetes.Gemmatimonadetes'
p1551
(lp1552
F1230769.2307692308
aF787878.7878787878
aF1096774.1935483871
aF692307.6923076923
aF875000.0
aF2120000.0
aF1000000.0
aF1843750.0
asS'Bacteria.Chloroflexi.Ktedonobacteria'
p1553
(lp1554
F0.0
aF0.0
aF0.0
aF0.0
aF31250.0
aF40000.0
aF0.0
aF0.0
asS'Bacteria.Verrucomicrobia.Opitutae.Puniceicoccales.Puniceicoccaceae'
p1555
(lp1556
F0.0
aF0.0
aF0.0
aF25641.02564102564
aF31250.0
aF0.0
aF0.0
aF0.0
asS'Bacteria.Deferribacteres.Deferribacteres.Deferribacterales'
p1557
(lp1558
F76923.07692307692
aF60606.06060606061
aF64516.12903225807
aF25641.02564102564
aF31250.0
aF80000.0
aF0.0
aF31250.0
asS'Bacteria.Proteobacteria.Deltaproteobacteria.Desulfobacterales.Desulfobacteraceae.Desulfatiferula.olefinivorans'
p1559
(lp1560
F0.0
aF60606.06060606061
aF0.0
aF0.0
aF0.0
aF0.0
aF0.0
aF0.0
asS'Bacteria.Chloroflexi.Caldilineae.Caldilineales'
p1561
(lp1562
F461538.4615384615
aF818181.8181818182
aF645161.2903225807
aF435897.4358974359
aF843750.0
aF560000.0
aF954545.4545454546
aF625000.0
asS'Bacteria.Thermotogae'
p1563
(lp1564
F0.0
aF0.0
aF0.0
aF25641.02564102564
aF0.0
aF0.0
aF0.0
aF0.0
asS'Bacteria.Actinobacteria.Actinobacteria.Actinomycetales.Streptomycetaceae'
p1565
(lp1566
F38461.53846153846
aF121212.12121212122
aF0.0
aF0.0
aF31250.0
aF160000.0
aF0.0
aF62500.0
asS'Bacteria.Firmicutes.Bacilli.Bacillales.Paenibacillaceae.Paenibacillus.forsythiae'
p1567
(lp1568
F0.0
aF0.0
aF0.0
aF0.0
aF0.0
aF40000.0
aF0.0
aF0.0
asS'Bacteria.Proteobacteria.Deltaproteobacteria.Unassigned'
p1569
(lp1570
F38461.53846153846
aF30303.030303030304
aF0.0
aF0.0
aF0.0
aF0.0
aF0.0
aF0.0
asS'Bacteria.Proteobacteria.Alphaproteobacteria.Rickettsiales.Holosporaceae'
p1571
(lp1572
F0.0
aF0.0
aF32258.064516129034
aF0.0
aF0.0
aF0.0
aF0.0
aF31250.0
asS'Bacteria.Acidobacteria.Acidobacteria.Acidobacteriales.Acidobacteriaceae.Solibacter'
p1573
(lp1574
F0.0
aF0.0
aF0.0
aF0.0
aF0.0
aF0.0
aF0.0
aF31250.0
asS'Archaea'
p1575
(lp1576
F0.0
aF0.0
aF0.0
aF51282.05128205128
aF0.0
aF0.0
aF0.0
aF0.0
asS'Bacteria.Bacteroidetes.Sphingobacteria.Sphingobacteriales.Cytophagaceae.Pontibacter'
p1577
(lp1578
F0.0
aF30303.030303030304
aF0.0
aF0.0
aF62500.0
aF0.0
aF22727.272727272728
aF0.0
asS'Bacteria.Verrucomicrobia.Verrucomicrobiae.Verrucomicrobiales.Verrucomicrobiaceae.Haloferula'
p1579
(lp1580
F38461.53846153846
aF151515.15151515152
aF32258.064516129034
aF51282.05128205128
aF0.0
aF0.0
aF0.0
aF0.0
asS'Bacteria.Proteobacteria.Alphaproteobacteria.Rickettsiales.Rickettsiaceae.Rickettsia'
p1581
(lp1582
F0.0
aF0.0
aF0.0
aF0.0
aF31250.0
aF0.0
aF0.0
aF0.0
asS'Bacteria.Proteobacteria.Gammaproteobacteria.Alteromonadales.Alteromonadaceae.Teredinibacter'
p1583
(lp1584
F0.0
aF0.0
aF64516.12903225807
aF0.0
aF93750.0
aF120000.0
aF0.0
aF0.0
asS'Bacteria.Proteobacteria.Gammaproteobacteria.Alteromonadales.Alteromonadaceae.Aliagarivorans'
p1585
(lp1586
F38461.53846153846
aF0.0
aF0.0
aF0.0
aF0.0
aF0.0
aF0.0
aF0.0
asS'Bacteria.Proteobacteria.Deltaproteobacteria.Desulfobacterales.Desulfobacteraceae'
p1587
(lp1588
F461538.4615384615
aF212121.21212121213
aF225806.45161290324
aF589743.5897435897
aF0.0
aF0.0
aF22727.272727272728
aF0.0
asS'Bacteria.Proteobacteria.Deltaproteobacteria.Myxococcales.Polyangiaceae.Sorangium.cellulosum'
p1589
(lp1590
F0.0
aF0.0
aF0.0
aF0.0
aF31250.0
aF0.0
aF0.0
aF0.0
asS'Bacteria.Proteobacteria.Gammaproteobacteria.Alteromonadales.Pseudoalteromonadaceae'
p1591
(lp1592
F38461.53846153846
aF0.0
aF0.0
aF0.0
aF0.0
aF0.0
aF0.0
aF0.0
asS'Bacteria.Proteobacteria.Gammaproteobacteria.Alteromonadales.Shewanellaceae'
p1593
(lp1594
F38461.53846153846
aF0.0
aF0.0
aF0.0
aF0.0
aF0.0
aF0.0
aF0.0
asS'Bacteria.Proteobacteria.Alphaproteobacteria.Caulobacterales.Hyphomonadaceae.Robiginitomaculum'
p1595
(lp1596
F0.0
aF0.0
aF0.0
aF0.0
aF0.0
aF40000.0
aF0.0
aF0.0
asS'Bacteria.Bacteroidetes.Sphingobacteria.Sphingobacteriales.Cyclobacteriaceae'
p1597
(lp1598
F0.0
aF30303.030303030304
aF0.0
aF25641.02564102564
aF0.0
aF0.0
aF0.0
aF0.0
asS'Bacteria.Cyanobacteria.Cyanobacteria'
p1599
(lp1600
F76923.07692307692
aF30303.030303030304
aF0.0
aF0.0
aF62500.0
aF80000.0
aF45454.545454545456
aF0.0
asS'Bacteria.Proteobacteria.Gammaproteobacteria.Enterobacteriales.Enterobacteriaceae.Serratia.marcescens'
p1601
(lp1602
F0.0
aF0.0
aF0.0
aF0.0
aF0.0
aF40000.0
aF22727.272727272728
aF31250.0
asS'Bacteria.Actinobacteria.Actinobacteria.Actinomycetales.Micrococcaceae.Nesterenkonia'
p1603
(lp1604
F0.0
aF0.0
aF0.0
aF0.0
aF31250.0
aF0.0
aF0.0
aF0.0
asS'Bacteria'
p1605
(lp1606
F76923.07692307692
aF90909.09090909091
aF96774.1935483871
aF153846.15384615384
aF93750.0
aF280000.0
aF181818.18181818182
aF62500.0
assS'subclass_sl'
p1607
(dp1608
g12
(I4
I8
tp1609
sg10
(I0
I4
tp1610
ssS'norm'
p1611
F1000000.0
sS'cls'
p1612
(dp1613
S'class'
p1614
(S'AC'
p1615
S'AC'
p1616
S'AC'
p1617
g3
S'AM'
p1618
S'AM'
p1619
S'AM'
p1620
g5
tp1621
sS'subclass'
p1622
(lp1623
S'AC_subcl'
p1624
aS'AC_subcl'
p1625
aS'AC_subcl'
p1626
ag10
aS'AM_subcl'
p1627
aS'AM_subcl'
p1628
aS'AM_subcl'
p1629
ag12
asS'subject'
p1630
(S'AC1'
p1631
S'AC2'
p1632
S'AC3'
p1633
S'AC4'
p1634
S'AM1'
p1635
S'AM2'
p1636
S'AM3'
p1637
S'AM4'
p1638
tp1639
ss.